(lp1
(lp2
I2619
aI2510
aI1529
aa(lp3
I4686
aI809
aa(lp4
I4635
aI111
aI5329
aI530
aI3054
aa(lp5
I4437
aI5333
aa(lp6
I1512
aI1512
aa(lp7
I390
aI5432
aI201
aa(lp8
I2026
aI4978
aI1660
aI4558
aa(lp9
I5203
aI1157
aI223
aa(lp10
I96
aI3136
aI3370
aa(lp11
I4968
aI1402
aI1121
aI4203
aa(lp12
I2828
aI3265
aI77
aI3096
aa(lp13
I4115
aI3077
aa(lp14
I724
aI2066
aa(lp15
I2534
aa(lp16
I1938
aI565
aI1563
aI1779
aI4270
aa(lp17
I567
aI2986
aI532
aa(lp18
I2356
aa(lp19
I4853
aa(lp20
I396
aI1470
aI5196
aI2503
aI1597
aI5172
aI3307
aI3409
aa(lp21
I1000
aa(lp22
I1775
aI2175
aI828
aa(lp23
I5411
aI3321
aa(lp24
I301
aI3227
aa(lp25
I3231
aI3043
aI794
aa(lp26
I1616
aI3637
aa(lp27
I2673
aI3433
aI1065
aI4907
aa(lp28
I3249
aI2103
aI4555
aI2130
aI4325
aa(lp29
I935
aI2785
aI4654
aa(lp30
I2796
aI828
aa(lp31
I1479
aa(lp32
I1240
aI5362
aa(lp33
I4874
aI3707
aI2912
aa(lp34
I1595
aI4251
aI5055
aa(lp35
I356
aI4014
aa(lp36
I3162
aI3638
aI3890
aI2666
aI3514
aI4681
aI2420
aI1942
aI4964
aa(lp37
I2728
aI3368
aI1455
aI1184
aa(lp38
I5323
aa(lp39
I3394
aI1957
aI339
aa(lp40
I1812
aI1795
aI2590
aa(lp41
I3778
aI1449
aa(lp42
I4438
aI4196
aI4725
aa(lp43
I2622
aa(lp44
I1760
aI4901
aI2628
aI3242
aI3242
aa(lp45
I2901
aI2302
aa(lp46
I2054
aI1259
aa(lp47
I4847
aI2032
aa(lp48
I226
aI2290
aI3976
aI4820
aa(lp49
I2861
aI1394
aa(lp50
I393
aI2167
aI5230
aI2139
aI2559
aI2200
aa(lp51
I2648
aI1306
aI5541
aa(lp52
I3766
aI1697
aI1796
aI1341
aI0
aa(lp53
I811
aI811
aa(lp54
I2447
aI844
aI2449
aa(lp55
I3001
aI335
aI4131
aa(lp56
I5381
aa(lp57
I842
aa(lp58
I1772
aI1540
aI4968
aI1313
aa(lp59
I1095
aI4336
aI2427
aa(lp60
I1884
aa(lp61
I4046
aa(lp62
I1925
aI5036
aI1665
aI2443
aa(lp63
I4368
aa(lp64
I2744
aI2032
aa(lp65
I3775
aI444
aa(lp66
I2010
aI3555
aI826
aI210
aI4466
aa(lp67
I2322
aI1477
aa(lp68
I3888
aI5295
aI1073
aa(lp69
I5231
aI3117
aa(lp70
I2941
aI3567
aI5225
aI1539
aI2006
aa(lp71
I366
aI2121
aI4516
aI2173
aI1131
aI2576
aI139
aI5147
aI1383
aI1733
aI4233
aI4278
aa(lp72
I317
aa(lp73
I2288
aI2910
aI1524
aa(lp74
I429
aI3636
aa(lp75
I3754
aI3216
aI2268
aI1245
aa(lp76
I3191
aI3672
aa(lp77
I3774
aI432
aa(lp78
I3713
aI1430
aI4327
aI277
aa(lp79
I367
aa(lp80
I2433
aI4125
aI4690
aa(lp81
I108
aI3169
aI3401
aa(lp82
I5152
aa(lp83
I2533
aa(lp84
I2850
aI4149
aI4108
aa(lp85
I4273
aa(lp86
I4050
aI5403
aI2061
aa(lp87
I4632
aI13
aI2598
aI1427
aI5234
aI2598
aI327
aa(lp88
I5158
aI1883
aI2012
aa(lp89
I4782
aI359
aI3974
aa(lp90
I4394
aI3937
aI4982
aI3652
aa(lp91
I1429
aI4668
aa(lp92
I4428
aa(lp93
I1840
aI578
aI972
aa(lp94
I3497
aI751
aa(lp95
I5381
aa(lp96
I2768
aI2129
aa(lp97
I34
aa(lp98
I4103
aI3072
aI1215
aa(lp99
I418
aI4446
aI4446
aI3594
aI3594
aa(lp100
I3647
aI5154
aI2410
aa(lp101
I4294
aI1289
aI1701
aI2780
aI5076
aI5076
aI5076
aa(lp102
I1910
aI2369
aI5111
aa(lp103
I3165
aI1784
aa(lp104
I1704
aI4372
aa(lp105
I4052
aI2229
aI539
aa(lp106
I66
aI2440
aa(lp107
I2888
aI5222
aI523
aa(lp108
I1414
aa(lp109
I5454
aI5272
aI4739
aI5109
aa(lp110
I496
aI426
aI417
aa(lp111
I5323
aI4655
aI3562
aa(lp112
I4133
aI3578
aa(lp113
I1359
aI1721
aI4178
aI910
aI2080
aI542
aI71
aa(lp114
I1646
aI1574
aI429
aI3360
aI2403
aI3636
aI918
aa(lp115
I5272
aI4739
aa(lp116
I48
aa(lp117
I4489
aI4065
aI2144
aI674
aI4226
aa(lp118
I546
aI5132
aa(lp119
I3308
aI4673
aI677
aI1133
aI2418
aI3362
aI3325
aI5156
aI2604
aI1485
aI163
aI4593
aI3688
aI4093
aI2096
aI323
aI2077
aI2381
aI3681
aa(lp120
I2107
aI4142
aa(lp121
I1517
aI4377
aa(lp122
I446
aI594
aa(lp123
I3667
aI3955
aa(lp124
I1548
aa(lp125
I5482
aI2490
aI4640
aI3831
aI3225
aI1869
aa(lp126
I260
aI4800
aa(lp127
I2964
aI2964
aI4823
aI4823
aI879
aI879
aa(lp128
I2718
aI2074
aa(lp129
I1060
aI3100
aI3435
aI2912
aa(lp130
I2213
aI155
aa(lp131
I5050
aI1825
aa(lp132
I2689
aI3857
aI570
aa(lp133
I4066
aa(lp134
I3882
aI1850
aa(lp135
I5024
aa(lp136
I2624
aI4557
aI3770
aa(lp137
I4545
aI3491
aa(lp138
I2496
aI5183
aI645
aa(lp139
I4846
aI2020
aI2157
aa(lp140
I278
aI4628
aI3602
aa(lp141
I1101
aI2816
aI5462
aa(lp142
I311
aI1163
aa(lp143
I4544
aa(lp144
I2387
aI5096
aI5403
aa(lp145
I4156
aI966
aI1555
aa(lp146
I1680
aI3407
aI3525
aI2405
aa(lp147
I2869
aI1881
aI5434
aI3359
aa(lp148
I987
aI3464
aa(lp149
I3341
aI270
aa(lp150
I3795
aa(lp151
I2195
aI705
aa(lp152
I5237
aa(lp153
I4515
aI2108
aa(lp154
I4499
aI3990
aI18
aI1255
aa(lp155
I3125
aI851
aI2950
aI89
aa(lp156
I1265
aI4223
aa(lp157
I1967
aa(lp158
I1124
aI3986
aa(lp159
I5247
aa(lp160
I153
aI1851
aI1899
aa(lp161
I2438
aI4627
aI803
aI4887
aI4646
aa(lp162
I3819
aI1736
aa(lp163
I4725
aI3428
aI4196
aI2946
aa(lp164
I4884
aI1872
aI5158
aa(lp165
I1267
aI2300
aI3115
aa(lp166
I3153
aa(lp167
I4707
aI1770
aa(lp168
I3267
aI3267
aI2008
aI4039
aI3881
aI3799
aI3632
aa(lp169
I3559
aI2142
aa(lp170
I179
aI1094
aa(lp171
I148
aa(lp172
I4321
aa(lp173
I4351
aI4564
aI554
aa(lp174
I4683
aI4683
aI350
aI350
aa(lp175
I5254
aI3065
aa(lp176
I3609
aI1656
aa(lp177
I238
aI3924
aI2925
aI2324
aa(lp178
I2760
aI4752
aI5108
aI4049
aI1294
aI4140
aa(lp179
I111
aI2261
aI5329
aI4635
aI3870
aI860
aa(lp180
I4002
aI4672
aI608
aI3273
aI2928
aa(lp181
I2947
aI1231
aI1527
aa(lp182
I5201
aI2854
aI3298
aa(lp183
I2529
aI1395
aa(lp184
I3352
aI32
aI408
aa(lp185
I5445
aI4592
aI3833
aI143
aI4376
aI5322
aI1677
aa(lp186
I4212
aI4669
aI3604
aa(lp187
I1241
aI2032
aa(lp188
I3317
aI196
aI2676
aa(lp189
I5040
aI2509
aa(lp190
I5141
aI3516
aI1351
aa(lp191
I954
aI1118
aI3421
aI482
aa(lp192
I4789
aI5457
aa(lp193
I4941
aa(lp194
I2295
aI1953
aI2123
aI2333
aI1190
aI1401
aI5032
aI2793
aI577
aI1634
aI3686
aa(lp195
I2945
aI1611
aI893
aI414
aa(lp196
I866
aI3164
aI4927
aa(lp197
I142
aI1139
aI3355
aI2347
aa(lp198
I2380
aa(lp199
I740
aI4680
aa(lp200
I986
aI1718
aa(lp201
I4616
aI269
aI4207
aa(lp202
I384
aa(lp203
I3293
aa(lp204
I5013
aI4617
aI1852
aI4059
aa(lp205
I5403
aI2390
aI1684
aa(lp206
I4057
aI4057
aa(lp207
I326
aa(lp208
I1890
aI1890
aI879
aI879
aa(lp209
I3064
aI3064
aI887
aI2452
aI2524
aa(lp210
I2717
aI3821
aI628
aa(lp211
I66
aa(lp212
I3021
aI4757
aI1026
aI3454
aa(lp213
I958
aa(lp214
I2409
aI228
aa(lp215
I321
aI799
aI4425
aI2125
aa(lp216
I1740
aa(lp217
I663
aI364
aa(lp218
I1765
aI577
aa(lp219
I2081
aI5267
aa(lp220
I2586
aI3886
aa(lp221
I1890
aI3665
aI1890
aI4250
aI4250
aI879
aI879
aa(lp222
I1082
aI699
aI1917
aI3574
aa(lp223
I2088
aI4476
aa(lp224
I5516
aI4791
aa(lp225
I76
aI3687
aI3710
aa(lp226
I3369
aI2017
aI3263
aa(lp227
I3690
aa(lp228
I3263
aI4218
aa(lp229
I1224
aa(lp230
I4569
aa(lp231
I5485
aa(lp232
I221
aI4037
aI4037
aa(lp233
I5210
aI3595
aI1610
aI3645
aa(lp234
I1672
aI2819
aI3183
aI5354
aI1706
aI4950
aI711
aa(lp235
I4951
aI2250
aa(lp236
I1578
aI3214
aI520
aI3501
aI101
aa(lp237
I4823
aI4823
aI5264
aI5264
aI879
aI879
aa(lp238
I2779
aa(lp239
I2557
aa(lp240
I4498
aI2093
aa(lp241
I2776
aI3800
aa(lp242
I5323
aI4655
aa(lp243
I2772
aI1798
aa(lp244
I5348
aI5348
aI5264
aI5264
aI879
aI879
aa(lp245
I2930
aa(lp246
I2557
aa(lp247
I2689
aI570
aI3857
aa(lp248
I2668
aI4891
aI1127
aa(lp249
I885
aI2984
aa(lp250
I4957
aa(lp251
I5477
aI3613
aI2565
aa(lp252
I2232
aI1921
aI2965
aa(lp253
I2864
aI3102
aI4129
aa(lp254
I1207
aI253
aa(lp255
I3936
aI3760
aI4204
aa(lp256
I1915
aI1915
aa(lp257
I5420
aI2032
aa(lp258
I5466
aI4332
aa(lp259
I4569
aa(lp260
I2448
aI159
aI1493
aa(lp261
I1810
aI92
aI1086
aa(lp262
I4177
aI2182
aI2917
aa(lp263
I2514
aa(lp264
I4465
aI1816
aI406
aa(lp265
I881
aI3450
aI3492
aa(lp266
I1456
aI989
aa(lp267
I3857
aI3038
aa(lp268
I1002
aI5445
aa(lp269
I4744
aI5091
aa(lp270
I289
aI1182
aI407
aI2989
aI4055
aI3053
aa(lp271
I4878
aI4878
aI3486
aI3486
aa(lp272
I1765
aI577
aa(lp273
I4746
aI1847
aI5412
aI528
aa(lp274
I593
aa(lp275
I587
aa(lp276
I3608
aI2662
aI5094
aa(lp277
I5439
aI626
aI1083
aI1577
aa(lp278
I743
aI1008
aI4784
aI158
aa(lp279
I39
aI4969
aI3590
aI2385
aI4030
aa(lp280
I3984
aI2932
aI1651
aI495
aI654
aa(lp281
I4052
aI2229
aI539
aa(lp282
I4850
aI4246
aI2849
aI979
aI525
aI4529
aI1017
aI5300
aa(lp283
I905
aI3769
aI4572
aI1606
aa(lp284
I4003
aa(lp285
I4139
aI3282
aa(lp286
I2311
aI4471
aI1909
aa(lp287
I1328
aI1665
aI2443
aa(lp288
I2619
aI3066
aI2510
aI1529
aI3938
aa(lp289
I714
aI493
aI3469
aI3442
aI2117
aI545
aa(lp290
I1806
aI1168
aI4730
aI3507
aI4531
aI2370
aI1782
aa(lp291
I583
aI742
aI3348
aI915
aa(lp292
I5357
aa(lp293
I1878
aI4740
aa(lp294
I1624
aI2439
aa(lp295
I2689
aI570
aI3857
aa(lp296
I605
aa(lp297
I2068
aI4369
aI2834
aa(lp298
I3676
aI3760
aI4204
aa(lp299
I4591
aI3589
aI4591
aI3521
aI3521
aI5532
aI5532
aa(lp300
I343
aI2553
aI5197
aI3568
aI4304
aI1272
aI1410
aI4148
aI4166
aa(lp301
I1007
aa(lp302
I3676
aI3760
aI4204
aa(lp303
I4729
aI3246
aI3422
aI1491
aI5354
aa(lp304
I1973
aI3073
aa(lp305
I1763
aI145
aa(lp306
I3757
aI5323
aa(lp307
I581
aI3954
aI507
aa(lp308
I4224
aI570
aa(lp309
I3774
aI432
aI1631
aa(lp310
I3292
aI853
aI1438
aI1321
aa(lp311
I2274
aI3032
aa(lp312
I5272
aa(lp313
I244
aI2040
aI1113
aa(lp314
I161
aI4820
aI5254
aI3065
aa(lp315
I4936
aI4377
aa(lp316
I3002
aI74
aa(lp317
I322
aa(lp318
I247
aI3419
aI404
aa(lp319
I1432
aI673
aa(lp320
I3629
aI2176
aI2469
aa(lp321
I2428
aI5254
aI3065
aa(lp322
I516
aI1230
aI4333
aI3701
aa(lp323
I3910
aI4476
aa(lp324
I2561
aa(lp325
I1449
aI406
aI1669
aI282
aa(lp326
I4373
aI629
aa(lp327
I5323
aI3562
aI4655
aa(lp328
I5504
aI1690
aI3238
aI4026
aa(lp329
I3244
aI131
aI1459
aI3389
aa(lp330
I1816
aI5391
aI406
aI5148
aa(lp331
I1364
aI4439
aa(lp332
I4219
aI4388
aI1421
aa(lp333
I4935
aI4079
aa(lp334
I1059
aI4180
aI1661
aI4023
aa(lp335
I5039
aI3796
aI3303
aa(lp336
I4750
aI984
aa(lp337
I5403
aI2387
aI169
aa(lp338
I4890
aI4386
aI82
aa(lp339
I1320
aI5497
aI2174
aI3894
aI4707
aa(lp340
I2639
aI4126
aI2583
aI410
aa(lp341
I3682
aa(lp342
I1568
aI2537
aI4689
aa(lp343
I389
aI4688
aI700
aa(lp344
I4998
aI1474
aa(lp345
I4292
aa(lp346
I1172
aI1118
aI3421
aI4932
aa(lp347
I2309
aI1532
aa(lp348
I2825
aI935
aI2785
aa(lp349
I4150
aI1081
aa(lp350
I3049
aI1154
aa(lp351
I2911
aI4819
aI5216
aI4080
aI1717
aa(lp352
I1231
aa(lp353
I125
aa(lp354
I2557
aa(lp355
I4871
aI1252
aa(lp356
I1816
aI406
aI5148
aa(lp357
I3383
aa(lp358
I2242
aI4824
aI4245
aa(lp359
I5313
aI1905
aa(lp360
I2919
aI3272
aa(lp361
I5205
aa(lp362
I2278
aI3360
aI365
aI294
aI365
aa(lp363
I429
aI3636
aa(lp364
I3531
aI4339
aI3035
aI3633
aI1363
aI1804
aa(lp365
I1676
aI3617
aa(lp366
I3885
aI4332
aa(lp367
I5363
aI888
aI3194
aa(lp368
I1119
aI956
aI547
aI2987
aI4460
aI3673
aI5340
aa(lp369
I4428
aa(lp370
I5403
aI2442
aa(lp371
I5323
aI4655
aa(lp372
I4935
aI4079
aa(lp373
I1138
aI692
aa(lp374
I3929
aI2037
aI1411
aI3915
aa(lp375
I625
aI3047
aI1826
aI2929
aI1860
aI4396
aI5270
aI2244
aI1554
aa(lp376
I5272
aI4414
aa(lp377
I2321
aI2526
aI5080
aa(lp378
I5539
aI2900
aa(lp379
I1099
aI4693
aI2735
aa(lp380
I4553
aI5179
aa(lp381
I3834
aI2589
aI653
aI3644
aa(lp382
I3851
aI4826
aa(lp383
I3395
aI761
aI122
aI150
aI1360
aI2572
aI2017
aa(lp384
I4639
aI164
aI2450
aI2781
aI3313
aa(lp385
I2351
aI2730
aI2591
aa(lp386
I4365
aI2627
aI3612
aI4501
aa(lp387
I3955
aI4247
aI3135
aI3446
aa(lp388
I1535
aa(lp389
I2880
aI1488
aI1085
aa(lp390
I4276
aI2164
aI669
aa(lp391
I1009
aI2483
aa(lp392
I1996
aI4230
aI523
aa(lp393
I1227
aI4335
aI4625
aa(lp394
I4827
aI1156
aa(lp395
I1959
aI150
aI3395
aa(lp396
I3394
aI1957
aI5208
aa(lp397
I2160
aa(lp398
I622
aI351
aI2747
aI2979
aI2979
aa(lp399
I572
aI3074
aa(lp400
I1347
aa(lp401
I290
aI5042
aI5480
aI4045
aa(lp402
I1908
aI3935
aI4679
aI5412
aa(lp403
I4823
aI4823
aI5264
aI5264
aI879
aI879
aa(lp404
I566
aI4111
aI1887
aI2868
aa(lp405
I2103
aI2130
aI4555
aI3249
aa(lp406
I1699
aI4706
aa(lp407
I1605
aI3864
aI3499
aI4530
aI3474
aa(lp408
I4892
aI4838
aI5530
aa(lp409
I1528
aI5317
aI2519
aI336
aa(lp410
I2994
aa(lp411
I3162
aI3638
aI3890
aI2666
aI3514
aI4681
aI2420
aI1942
aI4964
aa(lp412
I151
aI1266
aa(lp413
I3955
aI486
aI4493
aa(lp414
I181
aI3463
aa(lp415
I2204
aa(lp416
I367
aI367
aI1549
aI1549
aI3360
aI4537
aI1586
aI2977
aI4295
aI273
aI2278
aI2140
aI294
aI823
aI1585
aI4804
aI1251
aI4506
aI929
aa(lp417
I70
aI3913
aI20
aI5526
aa(lp418
I2617
aI649
aI3729
aa(lp419
I896
aa(lp420
I3477
aI4476
aa(lp421
I2187
aa(lp422
I4387
aI2110
aa(lp423
I1483
aI3738
aI3285
aI5128
aa(lp424
I3398
aI4885
aI4201
aI1911
aI3939
aI1277
aa(lp425
I4285
aI4262
aa(lp426
I3481
aI1821
aI5275
aI535
aa(lp427
I1335
aa(lp428
I276
aI3433
aI4907
aI5444
aI5380
aI4517
aa(lp429
I3753
aI2523
aI1004
aI4152
aa(lp430
I877
aI2522
aa(lp431
I4825
aI1714
aI3163
aI2255
aI4032
aI3723
aI4845
aI684
aI3312
aI4747
aa(lp432
I375
aI4479
aa(lp433
I2236
aI3725
aa(lp434
I1805
aI2521
aI2383
aa(lp435
I2088
aI3233
aa(lp436
I3828
aI2407
aa(lp437
I3965
aI896
aI1548
aa(lp438
I1748
aa(lp439
I1886
aa(lp440
I1530
aI3986
aa(lp441
I4781
aI3119
aI884
aa(lp442
I5069
aI3241
aI4399
aa(lp443
I4384
aI2955
aa(lp444
I5357
aa(lp445
I4485
aI4770
aa(lp446
I311
aI4314
aI2686
aa(lp447
I2590
aI3186
aa(lp448
I5056
aI3243
aI5347
aa(lp449
I3857
aI3038
aa(lp450
I3879
aI1674
aI2366
aI1559
aI2095
aa(lp451
I2880
aI74
aI4815
aI166
aa(lp452
I2283
aI5188
aI2251
aa(lp453
I643
aa(lp454
I5012
aI3882
aI3170
aa(lp455
I4369
aI3448
aI5410
aa(lp456
I1682
aI3755
aI468
aI5097
aa(lp457
I434
aI4331
aI434
aI4331
aa(lp458
I2011
aI2069
aI2876
aI2908
aI518
aI2337
aI1270
aI4142
aa(lp459
I2387
aa(lp460
I2773
aa(lp461
I150
aI3395
aa(lp462
I603
aI3078
aI5402
aa(lp463
I1689
aI640
aI4996
aa(lp464
I4514
aI1100
aI1061
aI4298
aa(lp465
I4740
aI3147
aa(lp466
I1339
aI1339
aI1339
aa(lp467
I1053
aI3069
aI5216
aI403
aa(lp468
I4312
aI5327
aI4718
aI5288
aI4710
aa(lp469
I678
aI4406
aI50
aa(lp470
I3585
aI2899
aa(lp471
I2451
aa(lp472
I3930
aa(lp473
I1066
aI1466
aI889
aI5122
aI121
aa(lp474
I354
aa(lp475
I870
aa(lp476
I2380
aa(lp477
I3857
aI5527
aI292
aI134
aa(lp478
I194
aI1664
aI1913
aI2491
aa(lp479
I3431
aa(lp480
I110
aI607
aa(lp481
I3939
aI3733
aI124
aI2700
aa(lp482
I4052
aI2229
aI539
aa(lp483
I4523
aI1490
aI4457
aa(lp484
I895
aI2680
aI1562
aa(lp485
I2467
aI3223
aI4802
aI4344
aa(lp486
I2689
aI570
aI3857
aa(lp487
I1025
aa(lp488
I3299
aI4932
aa(lp489
I3133
aI792
aI4907
aa(lp490
I4828
aI3213
aI2385
aI4969
aa(lp491
I104
aI2109
aI4866
aI4228
aI3892
aI2652
aa(lp492
I3933
aa(lp493
I1570
aI5424
aa(lp494
I4522
aI4386
aa(lp495
I3993
aa(lp496
I3375
aI4600
aI792
aI4733
aa(lp497
I626
aa(lp498
I3479
aI3346
aI1133
aa(lp499
I3502
aI4105
aI5378
aI623
aa(lp500
I1587
aa(lp501
I4708
aI233
aI3546
aI2441
aa(lp502
I590
aI1458
aI4599
aI521
aI3598
aI1655
aa(lp503
I4052
aI2229
aI539
aa(lp504
I4498
aa(lp505
I2107
aI4142
aa(lp506
I3181
aI5217
aa(lp507
I298
aI1226
aI2873
aI0
aa(lp508
I4840
aI4983
aI1893
aa(lp509
I2954
aa(lp510
I4484
aI5112
aa(lp511
I4271
aI787
aI5272
aI463
aa(lp512
I3314
aI683
aI4322
aI4889
aa(lp513
I436
aI5461
aI2716
aI4377
aI4297
aa(lp514
I4504
aI1023
aI2698
aI1594
aa(lp515
I1583
aI4533
aa(lp516
I3939
aI2957
aI2547
aI3011
aa(lp517
I4132
aI3148
aI841
aI5394
aI5320
aa(lp518
I1850
aI5499
aa(lp519
I3144
aI287
aa(lp520
I2825
aI935
aI2785
aa(lp521
I3679
aI5254
aI77
aa(lp522
I894
aI171
aI564
aI1955
aa(lp523
I1679
aI3801
aI3228
aI2057
aa(lp524
I1787
aI2782
aa(lp525
I1856
aI3338
aI15
aa(lp526
I1189
aI4109
aa(lp527
I344
aa(lp528
I3191
aI3672
aa(lp529
I4452
aI3208
aI5470
aI4319
aI5074
aI5227
aI5008
aa(lp530
I4956
aI857
aI2738
aa(lp531
I3459
aa(lp532
I281
aa(lp533
I648
aI4596
aa(lp534
I4969
aI5107
aa(lp535
I214
aI4212
aa(lp536
I5027
aI2975
aI1282
aI546
aI546
aa(lp537
I2876
aI4142
aI1801
aI2282
aI120
aI4644
aI2069
aI5045
aI2011
aa(lp538
I5065
aI3009
aI3789
aI2459
aI3334
aa(lp539
I5015
aI5508
aa(lp540
I838
aI1243
aI77
aI1952
aI1269
aI30
aI4903
aI5536
aI1842
aI3957
aI405
aI4836
aa(lp541
I656
aI1681
aa(lp542
I1472
aI905
aI4572
aa(lp543
I154
aI2434
aa(lp544
I241
aI5007
aI4738
aa(lp545
I77
aI696
aI2708
aI2059
aa(lp546
I2317
aI3662
aI698
aI4888
aI2162
aI4600
aa(lp547
I4242
aI721
aI896
aa(lp548
I1358
aI5509
aa(lp549
I1292
aI3542
aa(lp550
I4601
aI701
aI2027
aI5099
aa(lp551
I533
aI4746
aI5412
aa(lp552
I1739
aI4034
aa(lp553
I1768
aI2837
aI156
aI1372
aI4238
aI64
aI1393
aI4658
aa(lp554
I4314
aI311
aa(lp555
I1647
aI5218
aI4647
aa(lp556
I4181
aI5421
aa(lp557
I5248
aI3695
aa(lp558
I3713
aI277
aa(lp559
I939
aa(lp560
I1965
aI1298
aa(lp561
I3805
aa(lp562
I2217
aI641
aI2215
aa(lp563
I4588
aI3295
aI753
aI2504
aa(lp564
I1587
aI3513
aa(lp565
I3882
aI1046
aa(lp566
I3315
aI3781
aa(lp567
I1925
aI5036
aI1665
aI2443
aa(lp568
I4853
aa(lp569
I5274
aI957
aa(lp570
I3161
aI3455
aa(lp571
I810
aI377
aI5356
aI2485
aa(lp572
I772
aI86
aI2090
aa(lp573
I4150
aI1081
aa(lp574
I1194
aa(lp575
I4244
aI5048
aI1854
aa(lp576
I1111
aa(lp577
I5181
aI2996
aI3448
aa(lp578
I3563
aI4290
aI3313
aa(lp579
I1053
aI3069
aI5216
aI403
aa(lp580
I2694
aI3237
aI4507
aa(lp581
I1105
aa(lp582
I4483
aa(lp583
I5328
aI3458
aI2976
aa(lp584
I469
aI5479
aa(lp585
I4524
aI5082
aI2216
aI40
aa(lp586
I2471
aI764
aa(lp587
I2311
aI4208
aI933
aI663
aI5022
aa(lp588
I4445
aI4972
aa(lp589
I2005
aI4615
aI1555
aI2245
aa(lp590
I2299
aa(lp591
I3373
aI4669
aI2260
aa(lp592
I2706
aI920
aI4807
aI283
aa(lp593
I4219
aI4388
aI1421
aa(lp594
I3086
aI136
aI526
aI3178
aa(lp595
I4667
aI237
aa(lp596
I3146
aa(lp597
I3869
aa(lp598
I5249
aI5060
aI4264
aa(lp599
I152
aI74
aI4350
aI2880
aa(lp600
I2391
aI861
aI3478
aI2520
aI1584
aa(lp601
I2471
aI764
aI3994
aa(lp602
I4480
aI3677
aI4089
aI2375
aa(lp603
I4888
aI698
aI249
aI3977
aa(lp604
I3223
aI1176
aI5224
aa(lp605
I2526
aI2321
aI2100
aI4542
aI1650
aI4398
aI1433
aa(lp606
I1812
aI27
aI5221
aI2284
aa(lp607
I3928
aI451
aa(lp608
I1865
aI3803
aI5132
aa(lp609
I543
aI239
aI3548
aa(lp610
I1514
aI984
aa(lp611
I3697
aI2372
aa(lp612
I5381
aa(lp613
I112
aI5041
aI1403
aI5071
aa(lp614
I1841
aI3336
aa(lp615
I2492
aI2252
aI902
aI3666
aI28
aa(lp616
I3764
aI123
aI2082
aa(lp617
I5422
aI1564
aa(lp618
I4281
aI897
aI5145
aa(lp619
I4179
aI2231
aI2399
aI3823
aI3973
aI4359
aa(lp620
I2278
aI3360
aI3360
aI294
aI294
aI3360
aI4537
aI1586
aI2977
aI4295
aI273
aI2278
aI2278
aI2140
aI294
aI823
aI1251
aI4506
aI929
aa(lp621
I4142
aI2069
aI4397
aa(lp622
I3713
aI277
aa(lp623
I367
aI4595
aI3360
aI4537
aI1586
aI2977
aI4295
aI273
aI2278
aI2140
aI294
aI4920
aI3471
aI823
aI3569
aI1251
aI4506
aI929
aI1331
aa(lp624
I5127
aI1087
aa(lp625
I5269
aI3978
aI5305
aa(lp626
I2389
aI662
aI365
aI3782
aI5216
aa(lp627
I4511
aI2544
aI4974
aa(lp628
I3550
aI9
aa(lp629
I2400
aI5063
aI5535
aa(lp630
I907
aI3605
aI127
aI2656
aI2898
aI3855
aa(lp631
I1496
aI1864
aa(lp632
I5446
aI4835
aa(lp633
I5139
aI2725
aI4869
aI5374
aI4356
aI2616
aa(lp634
I2924
aI2424
aI1671
aa(lp635
I4847
aI2032
aa(lp636
I384
aa(lp637
I1931
aI3297
aI1283
aI1711
aa(lp638
I3971
aI5095
aa(lp639
I5027
aI2975
aI1282
aI546
aI546
aa(lp640
I106
aI600
aI3596
aI943
aI991
aI1334
aI3748
aI983
aa(lp641
I413
aI690
aa(lp642
I3346
aa(lp643
I896
aa(lp644
I4052
aI2229
aI539
aa(lp645
I174
aI4087
aI5358
aI2899
aa(lp646
I3653
aI741
aI4110
aa(lp647
I5026
aI3650
aI3813
aa(lp648
I2145
aI5154
aI797
aa(lp649
I2792
aI1373
aI4543
aI3529
aa(lp650
I138
aI2177
aI941
aa(lp651
I2386
aI2958
aa(lp652
I3394
aI1957
aI5208
aa(lp653
I3337
aI4945
aI1758
aa(lp654
I4263
aI4831
aa(lp655
I2199
aI465
aI2411
aa(lp656
I2110
aa(lp657
I857
aI2856
aI3230
aa(lp658
I4882
aI2827
aI5106
aa(lp659
I4058
aa(lp660
I752
aI4195
aI790
aI4788
aa(lp661
I3465
aI1755
aI1745
aI2877
aa(lp662
I2636
aI4534
aa(lp663
I4969
aI5107
aa(lp664
I3448
aI4216
aI5410
aa(lp665
I2777
aI475
aI903
aa(lp666
I254
aI3523
aI609
aa(lp667
I2693
aI761
aa(lp668
I4895
aa(lp669
I1367
aa(lp670
I330
aI4969
aa(lp671
I5492
aI4464
aI908
aa(lp672
I1961
aI4618
aa(lp673
I4929
aI4604
aa(lp674
I871
aI3046
aa(lp675
I2880
aI5009
aa(lp676
I2709
aI2707
aI4070
aI4253
aa(lp677
I3848
aI2083
aI4401
aa(lp678
I5127
aI2720
aa(lp679
I3943
aI3259
aa(lp680
I2367
aI1081
aa(lp681
I3974
aI177
aa(lp682
I829
aI2141
aI2438
aI2021
aa(lp683
I8
aI1881
aI2869
aa(lp684
I246
aI3179
aI658
aa(lp685
I4936
aI1517
aI4377
aI1575
aa(lp686
I3685
aI3361
aI3361
aI1039
aI1039
aa(lp687
I1678
aI5224
aa(lp688
I1481
aI4633
aI4031
aa(lp689
I1483
aI3738
aI2337
aI1693
aa(lp690
I1144
aI2127
aa(lp691
I3940
aI3499
aI5297
aI3864
aI4530
aI2874
aa(lp692
I2104
aI2968
aI538
aa(lp693
I3158
aI423
aI150
aa(lp694
I4264
aI648
aI1542
aI1936
aa(lp695
I4970
aI4922
aI2653
aI1286
aa(lp696
I3024
aI3290
aI738
aI4862
aa(lp697
I2526
aI480
aI487
aa(lp698
I2579
aI4362
aI3941
aI2256
aI3270
aI4902
aa(lp699
I220
aI271
aI5167
aI5408
aa(lp700
I4075
aI1074
aI4799
aa(lp701
I2442
aI4587
aI5403
aI169
aa(lp702
I3789
aI4142
aa(lp703
I2950
aa(lp704
I5049
aI2407
aI4932
aI1948
aa(lp705
I385
aI3950
aI3549
aI299
aI2743
aI2784
aa(lp706
I4136
aa(lp707
I438
aa(lp708
I5311
aI3050
aa(lp709
I3699
aI107
aI744
aI2414
aa(lp710
I5084
aI3108
aa(lp711
I2683
aI3556
aa(lp712
I3910
aa(lp713
I65
aI2688
aI4509
aa(lp714
I176
aI4172
aI2002
aI2703
aa(lp715
I1901
aa(lp716
I1939
aI5236
aI1724
aa(lp717
I1996
aI4230
aI523
aa(lp718
I791
aa(lp719
I2422
aa(lp720
I4896
aa(lp721
I1482
aI3384
aa(lp722
I2193
aI3418
aa(lp723
I489
aI805
aa(lp724
I2959
aI3215
aa(lp725
I948
aI652
aI5213
aa(lp726
I3819
aa(lp727
I1956
aI3192
aI324
aa(lp728
I2225
aI653
aI4879
aI3644
aI3176
aa(lp729
I1704
aa(lp730
I5012
aa(lp731
I1555
aI653
aI3644
aa(lp732
I3198
aI1018
aI494
aa(lp733
I2320
aa(lp734
I4375
aI614
aI307
aI4473
aa(lp735
I1996
aI4230
aI523
aa(lp736
I2101
aI1209
aa(lp737
I4913
aI4934
aI1931
aI3297
aI1160
aI5242
aa(lp738
I5151
aI1069
aa(lp739
I220
aI574
aI5408
aa(lp740
I1845
aI611
aI3762
aI4354
aI382
aI4089
aa(lp741
I3775
aI2455
aI5304
aI2402
aI2678
aa(lp742
I279
aI3716
aa(lp743
I595
aI1379
aI1687
aa(lp744
I935
aI2825
aI2785
aa(lp745
I3597
aI2107
aa(lp746
I3040
aI4281
aI5145
aI897
aa(lp747
I3591
aI3566
aa(lp748
I1714
aI4825
aI3163
aI4845
aI1365
aI4032
aI2255
aI3723
aI5124
aI1365
aI5405
aI5510
aI5124
aa(lp749
I2637
aI4239
aa(lp750
I367
aa(lp751
I214
aI4212
aa(lp752
I3968
aI1979
aa(lp753
I3628
aa(lp754
I2354
aI4142
aa(lp755
I3697
aI3488
aa(lp756
I267
aa(lp757
I2418
aI677
aI1133
aI3681
aI4381
aI3325
aI5156
aI784
aI163
aI4093
aI3171
aI3988
aI765
aI323
aI2381
aa(lp758
I4142
aI3220
aI3727
aI2011
aI2876
aa(lp759
I4651
aI611
aI382
aI4089
aa(lp760
I3725
aI3354
aa(lp761
I4060
aI704
aa(lp762
I1060
aI91
aI1928
aa(lp763
I157
aI3810
aI1667
aI1998
aI2886
aI4930
aa(lp764
I5336
aI2071
aa(lp765
I5100
aI4004
aI25
aI3788
aa(lp766
I4220
aa(lp767
I5153
aI2726
aI1424
aI272
aa(lp768
I3620
aa(lp769
I2757
aI679
aI3779
aI4408
aa(lp770
I5381
aa(lp771
I1195
aI3630
aa(lp772
I146
aI5454
aa(lp773
I338
aI5067
aI628
aI362
aa(lp774
I4113
aI2032
aa(lp775
I3396
aI2813
aa(lp776
I2795
aI4621
aa(lp777
I3838
aI2774
aI1930
aI4212
aI2763
aa(lp778
I3425
aI4986
aI2512
aa(lp779
I3254
aI3615
aI688
aa(lp780
I2504
aa(lp781
I1085
aI2880
aa(lp782
I3360
aI3360
aI1574
aI4537
aI3145
aI4090
aI4090
aI1586
aI2977
aI4295
aI273
aI2278
aI2140
aI294
aI3569
aa(lp783
I104
aa(lp784
I5220
aI195
aI4015
aa(lp785
I659
aI4569
aa(lp786
I1468
aI83
aI99
aI1377
aI4541
aa(lp787
I827
aI2973
aI150
aa(lp788
I1777
aI1777
aa(lp789
I2379
aI349
aa(lp790
I4383
aa(lp791
I813
aI4841
aa(lp792
I422
aI2501
aI2701
aa(lp793
I1967
aa(lp794
I329
aI3644
aI5260
aa(lp795
I890
aI5254
aI2416
aI4693
aI3065
aa(lp796
I1291
aI4853
aa(lp797
I2620
aI571
aI635
aa(lp798
I1291
aa(lp799
I2655
aI2240
aI1511
aI462
aI580
aa(lp800
I2235
aa(lp801
I264
aI2798
aI2718
aa(lp802
I1093
aI430
aI955
aI1316
aa(lp803
I2950
aI2665
aI722
aI1723
aI1738
aI1411
aI863
aa(lp804
I4940
aI3547
aI3185
aI3134
aI1807
aI1729
aa(lp805
I573
aI3388
aI1718
aa(lp806
I4809
aI607
aI1854
aa(lp807
I3021
aI4757
aa(lp808
I4016
aI5537
aa(lp809
I2086
aa(lp810
I1739
aa(lp811
I5118
aI5105
aI5475
aa(lp812
I5263
aI1691
aI2246
aI4377
aI2105
aI2085
aI16
aI490
aI5460
aI2000
aI1084
aI3498
aI2060
aa(lp813
I3079
aI1460
aI4366
aI1219
aa(lp814
I1382
aI3380
aa(lp815
I2569
aI492
aI401
aI5206
aI1431
aa(lp816
I5381
aa(lp817
I2474
aa(lp818
I1886
aa(lp819
I2988
aI1076
aI378
aa(lp820
I2807
aI5005
aI515
aa(lp821
I1110
aI1681
aI2032
aa(lp822
I3649
aI5154
aI797
aa(lp823
I4843
aI5162
aI3131
aa(lp824
I3875
aI5001
aI4665
aa(lp825
I927
aI298
aI3867
aI3911
aI4328
aa(lp826
I1170
aI1905
aa(lp827
I1273
aI4554
aa(lp828
I2112
aI1850
aa(lp829
I1338
aa(lp830
I73
aI2618
aa(lp831
I536
aa(lp832
I1965
aI1298
aa(lp833
I5177
aI182
aI4566
aa(lp834
I2508
aa(lp835
I5132
aa(lp836
I3490
aI2478
aI4441
aI3999
aa(lp837
I592
aI4681
aa(lp838
I3383
aa(lp839
I452
aI3923
aI3888
aI5104
aI1858
aI3255
aa(lp840
I4061
aI4405
aI4349
aa(lp841
I1832
aI4712
aI1622
aI44
aI4725
aa(lp842
I63
aI5427
aa(lp843
I555
aI4142
aI160
aI1894
aa(lp844
I2367
aI1081
aa(lp845
I3026
aI1163
aa(lp846
I4324
aa(lp847
I2279
aI5127
aI2720
aa(lp848
I129
aI3360
aa(lp849
I2654
aI261
aI741
aa(lp850
I1941
aI4289
aI2124
aa(lp851
I3129
aI1088
aI1877
aa(lp852
I2539
aI1813
aa(lp853
I204
aI186
aI883
aI4497
aa(lp854
I951
aI1210
aI2815
aa(lp855
I230
aI1533
aI3247
aI4985
aa(lp856
I5312
aa(lp857
I1799
aa(lp858
I5293
aI4033
aI2571
aI3532
aI1971
aI251
aa(lp859
I2786
aI2817
aI4894
aI213
aa(lp860
I2378
aI4133
aI3578
aa(lp861
I1525
aI3103
aa(lp862
I997
aI2299
aa(lp863
I429
aI3636
aI1646
aa(lp864
I1192
aI1192
aI2956
aI815
aI815
aI4274
aI4274
aa(lp865
I1353
aI4527
aI4085
aI681
aI3358
aa(lp866
I3125
aI89
aI3516
aI178
aI5204
aa(lp867
I4147
aa(lp868
I317
aI596
aI3239
aI771
aa(lp869
I3755
aa(lp870
I3773
aI183
aa(lp871
I4492
aI1604
aI3149
aa(lp872
I5248
aI1011
aa(lp873
I2266
aI4364
aa(lp874
I4878
aI4878
aI3486
aI3486
aa(lp875
I295
aI3806
aI4154
aa(lp876
I4809
aI3558
aI1147
aa(lp877
I2950
aa(lp878
I598
aI4843
aI3131
aa(lp879
I930
aI1503
aI135
aa(lp880
I2554
aI4725
aI1832
aa(lp881
I2674
aI31
aa(lp882
I2373
aI2547
aI3112
aI3011
aa(lp883
I682
aI208
aI3335
aI1226
aI1226
aa(lp884
I4681
aa(lp885
I2557
aa(lp886
I2511
aa(lp887
I1350
aI49
aI1607
aa(lp888
I4373
aa(lp889
I3077
aI821
aI3622
aI3741
aI2017
aa(lp890
I4016
aI4355
aa(lp891
I1070
aI2262
aI3829
aI1544
aI3661
aa(lp892
I1725
aI2548
aa(lp893
I5258
aI5473
aa(lp894
I4255
aI2934
aI1695
aI1340
aI3339
aI3258
aa(lp895
I1003
aI4190
aI5044
aI5488
aI1003
aI4190
aa(lp896
I3933
aa(lp897
I821
aI3291
aI3824
aI1771
aI5069
aI4450
aI2806
aI2419
aa(lp898
I4826
aI2736
aa(lp899
I5423
aI309
aI4353
aa(lp900
I2912
aa(lp901
I259
aI192
aa(lp902
I306
aI2052
aI3998
aa(lp903
I4405
aI2852
aI4020
aI1935
aI3953
aa(lp904
I1072
aI798
aI3018
aa(lp905
I5472
aa(lp906
I1006
aI3732
aI397
aI5134
aI3634
aI2563
aI2352
aI1700
aI3368
aI1629
aI1455
aI1853
aI5463
aa(lp907
I769
aI4937
aa(lp908
I2049
aI2697
aa(lp909
I1494
aI1569
aa(lp910
I1538
aI1199
aI4562
aI4905
aa(lp911
I671
aI3201
aa(lp912
I4268
aI4268
aI2119
aI2119
aI1308
aI4664
aa(lp913
I4429
aI2341
aI3974
aa(lp914
I4429
aa(lp915
I3519
aI5406
aa(lp916
I2889
aI2385
aa(lp917
I3611
aa(lp918
I5244
aI3472
aI3116
aI5376
aI1508
aI1903
aI1441
aI274
aa(lp919
I4343
aI4829
aI2094
aI4829
aa(lp920
I2429
aI2613
aI1049
aa(lp921
I1354
aI4451
aI1515
aI1788
aa(lp922
I332
aI3750
aI268
aa(lp923
I2799
aI4468
aI348
aa(lp924
I5363
aI5161
aI3194
aI973
aa(lp925
I1035
aI1262
aI4442
aI3921
aa(lp926
I5028
aI2159
aa(lp927
I4241
aI1863
aI302
aa(lp928
I1395
aI3206
aI2387
aa(lp929
I3268
aI2277
aa(lp930
I807
aI2562
aI589
aa(lp931
I569
aI595
aI2016
aI4669
aI1181
aa(lp932
I759
aI4912
aa(lp933
I312
aI1635
aI51
aa(lp934
I1091
aa(lp935
I3851
aI3439
aI3851
aI3817
aI3817
aa(lp936
I5186
aI1895
aI3719
aa(lp937
I941
aI5401
aa(lp938
I4733
aI792
aI4600
aI3375
aa(lp939
I4315
aI4681
aa(lp940
I345
aI5406
aa(lp941
I5140
aI4601
aa(lp942
I3559
aI197
aI2247
aa(lp943
I4939
aa(lp944
I3819
aa(lp945
I2523
aI1004
aI4152
aI328
aa(lp946
I44
aI1832
aI206
aI4903
aa(lp947
I4370
aI5191
aI1315
aI928
aa(lp948
I1194
aI4876
aa(lp949
I441
aI3508
aI3670
aI4326
aI458
aI2181
aI4539
aa(lp950
I5524
aI4236
aI77
aa(lp951
I4620
aI1171
aI3393
aI3564
aa(lp952
I3735
aI1374
aa(lp953
I5016
aa(lp954
I3438
aI1802
aa(lp955
I3826
aa(lp956
I4405
aI4727
aI4837
aa(lp957
I1341
aI1342
aI506
aI447
aa(lp958
I1829
aI2362
aI1396
aa(lp959
I300
aI2733
aI4786
aI4407
aa(lp960
I2674
aI31
aa(lp961
I1187
aI3357
aI2748
aI2587
aI1613
aa(lp962
I1767
aI3051
aI3051
aI1375
aI1375
aI3027
aI3027
aI5326
aI2055
aa(lp963
I2374
aI1173
aI97
aI97
aa(lp964
I3899
aI3964
aI4952
aa(lp965
I953
aI2647
aI1867
aa(lp966
I5366
aI1839
aa(lp967
I4165
aI3536
aI80
aI1518
aI3360
aI4537
aI3145
aI1586
aI2140
aI294
aI3684
aI3569
aa(lp968
I304
aI1185
aI3065
aa(lp969
I5509
aI1794
aI3982
aI3863
aa(lp970
I1888
aI3835
aa(lp971
I1925
aI5036
aa(lp972
I2425
aI1310
aI2634
aI1425
aa(lp973
I1977
aI481
aI3240
aI2692
aa(lp974
I4005
aa(lp975
I2596
aI2179
aa(lp976
I412
aI5339
aI3860
aa(lp977
I4669
aI4212
aI512
aI2168
aI3604
aa(lp978
I5143
aI824
aa(lp979
I667
aI2074
aa(lp980
I1768
aI3260
aI1692
aI1324
aa(lp981
I3517
aI2016
aI2938
aI3039
aa(lp982
I3276
aI1749
aI879
aa(lp983
I199
aI4041
aI1714
aI3163
aa(lp984
I2196
aI11
aa(lp985
I4778
aI1637
aa(lp986
I2803
aI5048
aa(lp987
I3333
aI4795
aI4130
aI402
aa(lp988
I3537
aI1057
aI2023
aI1950
aI4659
aa(lp989
I2091
aI5324
aa(lp990
I4423
aa(lp991
I1275
aI1275
aa(lp992
I599
aI4396
aI1860
aa(lp993
I5434
aI1983
aI2331
aI1881
aI2869
aa(lp994
I4285
aI3844
aa(lp995
I4722
aI1205
aI2675
aI2421
aa(lp996
I1179
aI1716
aI35
aI293
aI4960
aa(lp997
I3437
aI3872
aa(lp998
I1098
aI5132
aI2896
aa(lp999
I3423
aI802
aI4938
aa(lp1000
I2009
aa(lp1001
I243
aa(lp1002
I3408
aI1875
aI2151
aa(lp1003
I2911
aI1717
aI4080
aI1561
aI4819
aa(lp1004
I1066
aa(lp1005
I296
aI219
aa(lp1006
I3819
aa(lp1007
I2494
aI4608
aI4273
aa(lp1008
I217
aa(lp1009
I2514
aa(lp1010
I1047
aI1300
aa(lp1011
I4191
aI5052
aa(lp1012
I1280
aI5165
aI3802
aI3727
aa(lp1013
I2017
aI570
aI4115
aa(lp1014
I886
aI849
aI1337
aa(lp1015
I5033
aI4856
aI416
aa(lp1016
I2235
aI1130
aI4210
aa(lp1017
I4932
aI754
aI1118
aI3421
aI1345
aI4288
aI896
aI4538
aI1077
aa(lp1018
I3403
aa(lp1019
I1957
aI3394
aI5208
aI2809
aI1264
aa(lp1020
I3387
aI1609
aI2952
aa(lp1021
I4919
aa(lp1022
I3218
aI2880
aa(lp1023
I3952
aa(lp1024
I5285
aI4120
aI2902
aa(lp1025
I5239
aI2872
aa(lp1026
I1353
aI2463
aa(lp1027
I2355
aa(lp1028
I3956
aa(lp1029
I3970
aI2417
aI2482
aI4302
aa(lp1030
I1092
aI2693
aI1705
aI761
aI140
aI1572
aa(lp1031
I5253
aa(lp1032
I62
aI2755
aI4102
aI62
aI2755
aI4102
aa(lp1033
I1062
aI4643
aa(lp1034
I824
aI2208
aI5143
aI21
aI4235
aa(lp1035
I4309
aI934
aI514
aa(lp1036
I3229
aI1335
aa(lp1037
I2922
aI3417
aI4193
aI1352
aa(lp1038
I1977
aI1434
aI2672
aa(lp1039
I67
aI1306
aI5541
aa(lp1040
I3755
aa(lp1041
I4884
aI1027
aI1545
aI967
aI5440
aa(lp1042
I3026
aa(lp1043
I345
aI345
aI5406
aI5406
aa(lp1044
I4851
aI1019
aa(lp1045
I2754
aI4907
aa(lp1046
I934
aI1726
aI514
aI4870
aI1175
aa(lp1047
I2950
aa(lp1048
I3280
aI4753
aI2264
aI3751
aa(lp1049
I694
aa(lp1050
I2234
aI4857
aa(lp1051
I2507
aI193
aa(lp1052
I1856
aI3338
aI15
aI519
aI5168
aI891
aI1108
aI1993
aI660
aa(lp1053
I1126
aI3769
aI905
aa(lp1054
I1036
aI939
aa(lp1055
I1617
aI1343
aI2304
aa(lp1056
I235
aI2540
aI393
aI5191
aa(lp1057
I4629
aI3711
aI5334
aI3731
aI2404
aa(lp1058
I2765
aI5347
aI3243
aa(lp1059
I2243
aa(lp1060
I2226
aa(lp1061
I3893
aa(lp1062
I3294
aI2392
aa(lp1063
I2106
aI799
aa(lp1064
I4681
aI2666
aa(lp1065
I12
aI4850
aI525
aI4575
aI2849
aI979
aa(lp1066
I5069
aI4450
aI821
aI2419
aa(lp1067
I130
aa(lp1068
I783
aI5412
aa(lp1069
I2804
aI1330
aI1657
aI2239
aI3168
aa(lp1070
I3262
aa(lp1071
I472
aI3631
aa(lp1072
I4726
aI4362
aI3270
aa(lp1073
I2844
aI484
aI125
aa(lp1074
I4268
aI4268
aI2119
aI2119
aI1308
aI4664
aa(lp1075
I2073
aa(lp1076
I311
aa(lp1077
I4404
aI3120
aI906
aI2601
aI2601
aI2564
aI2336
aI721
aa(lp1078
I4707
aI3322
aa(lp1079
I3548
aI2205
aI1005
aI2456
aI239
aI4121
aa(lp1080
I3961
aa(lp1081
I1790
aI1643
aI2075
aI1823
aI4282
aI3861
aI3587
aa(lp1082
I4768
aI1009
aI3618
aI2483
aa(lp1083
I2861
aa(lp1084
I4286
aI728
aa(lp1085
I4377
aI2105
aI1691
aa(lp1086
I497
aI5525
aa(lp1087
I2128
aa(lp1088
I3125
aI89
aI851
aI2592
aa(lp1089
I4900
aI703
aI699
aa(lp1090
I5254
aa(lp1091
I5257
aI2207
aI4717
aa(lp1092
I689
aI3990
aa(lp1093
I5495
aI2447
aa(lp1094
I3419
aI404
aa(lp1095
I4609
aI3132
aI5280
aI627
aa(lp1096
I911
aI319
aa(lp1097
I4115
aI3077
aI4031
aa(lp1098
I2322
aa(lp1099
I24
aa(lp1100
I927
aI298
aI3090
aI3867
aI3911
aa(lp1101
I2652
aI4159
aa(lp1102
I3550
aI9
aI1188
aI1188
aa(lp1103
I1897
aI999
aI5301
aI1898
aI5400
aI4848
aI5090
aa(lp1104
I5298
aI3221
aI5216
aI173
aa(lp1105
I4283
aI1868
aI3432
aI2487
aI1447
aI717
aI4874
aI3707
aI2912
aa(lp1106
I2284
aa(lp1107
I1041
aI1041
aI1041
aa(lp1108
I346
aI2915
aI1260
aI1381
aI3815
aa(lp1109
I1841
aI2165
aI3342
aa(lp1110
I4792
aI1357
aa(lp1111
I3063
aI5478
aa(lp1112
I5481
aI4175
aa(lp1113
I4697
aI1446
aI3075
aI3167
aI1068
aI1442
aI3013
aa(lp1114
I2674
aI31
aa(lp1115
I1247
aI2263
aI4182
aa(lp1116
I4958
aa(lp1117
I1015
aa(lp1118
I974
aI890
aI5254
aI3065
aa(lp1119
I602
aI5431
aa(lp1120
I5125
aI1325
aa(lp1121
I1985
aI1520
aa(lp1122
I149
aI234
aI4202
aI14
aa(lp1123
I2189
aa(lp1124
I1376
aI1510
aI4907
aa(lp1125
I4775
aI5392
aI2417
aI2482
aI4302
aa(lp1126
I4605
aI733
aa(lp1127
I1407
aI2222
aa(lp1128
I3369
aI2017
aa(lp1129
I885
aI2984
aI3364
aI2185
aI4275
aa(lp1130
I3660
aI116
aI4797
aa(lp1131
I3931
aI5494
aa(lp1132
I3061
aI3545
aI4341
aI2212
aa(lp1133
I525
aI4246
aI4850
aa(lp1134
I3392
aa(lp1135
I5507
aa(lp1136
I2624
aI4557
aI2812
aI2488
aa(lp1137
I172
aI5443
aI5399
aa(lp1138
I4414
aI5272
aI2667
aa(lp1139
I4522
aI4386
aa(lp1140
I2869
aI1746
aI328
aI5363
aI2091
aa(lp1141
I2809
aI1957
aI3394
aI5208
aa(lp1142
I4360
aI4360
aI2871
aI2871
aa(lp1143
I5414
aI1277
aI2710
aa(lp1144
I1020
aI2340
aI1987
aI4540
aa(lp1145
I5252
aI984
aa(lp1146
I3505
aI3960
aI3960
aa(lp1147
I1227
aa(lp1148
I949
aa(lp1149
I2622
aI5049
aa(lp1150
I3974
aa(lp1151
I5296
aI371
aI1142
aa(lp1152
I1389
aI4552
aa(lp1153
I5493
aI4081
aa(lp1154
I2788
aI2107
aI4142
aa(lp1155
I4838
aI3092
aI5530
aI113
aa(lp1156
I2771
aI4703
aI1102
aa(lp1157
I1872
aI3310
aI5158
aI1883
aI1545
aa(lp1158
I822
aI3209
aI1332
aI4790
aa(lp1159
I450
aI3378
aI2969
aI3236
aI5202
aa(lp1160
I5308
aa(lp1161
I1050
aI1052
aI1904
aa(lp1162
I5373
aI1646
aI1927
aI3636
aa(lp1163
I3189
aI1654
aI2092
aa(lp1164
I2143
aI3193
aI630
aI2450
aI164
aI3313
aa(lp1165
I4218
aI757
aI1178
aa(lp1166
I5109
aI5272
aI4739
aa(lp1167
I2702
aI4787
aI2447
aa(lp1168
I1418
aI4307
aI3830
aI4603
aa(lp1169
I466
aI1905
aa(lp1170
I4827
aa(lp1171
I5441
aI963
aI4374
aa(lp1172
I5331
aI5519
aa(lp1173
I1348
aI3787
aI1155
aI2682
aI5116
aI2113
aa(lp1174
I4222
aI4776
aa(lp1175
I5453
aI2445
aI3504
aa(lp1176
I3995
aI3466
aI1702
aI2566
aI1296
aa(lp1177
I4004
aI25
aI3788
aa(lp1178
I573
aI4490
aI1718
aa(lp1179
I4142
aI2107
aI830
aI4397
aI2069
aa(lp1180
I91
aI4155
aI5182
aa(lp1181
I5359
aI613
aa(lp1182
I2811
aI2684
aI2118
aI1656
aa(lp1183
I4624
aI1112
aI2202
aa(lp1184
I3846
aI476
aa(lp1185
I1329
aI5365
aI2458
aa(lp1186
I1878
aI4740
aa(lp1187
I5272
aa(lp1188
I4906
aI1928
aa(lp1189
I917
aI2461
aI1915
aI2067
aa(lp1190
I653
aI3644
aa(lp1191
I2903
aI232
aa(lp1192
I2270
aI5018
aa(lp1193
I708
aI2167
aa(lp1194
I4808
aI2972
aa(lp1195
I2556
aI2776
aI3800
aa(lp1196
I1665
aI2443
aa(lp1197
I3772
aa(lp1198
I1392
aI4057
aa(lp1199
I1123
aa(lp1200
I1241
aI2032
aa(lp1201
I1448
aI3496
aI5310
aI1058
aa(lp1202
I1973
aI3073
aI1235
aI256
aI5417
aI3868
aI1305
aa(lp1203
I811
aI4169
aI1552
aI1188
aI1188
aa(lp1204
I3331
aI3374
aI3646
aI950
aa(lp1205
I3296
aI4104
aI909
aI2641
aI712
aa(lp1206
I1648
aI392
aa(lp1207
I3059
aI3128
aI3816
aI4765
aI457
aa(lp1208
I1587
aI3513
aa(lp1209
I2066
aI724
aa(lp1210
I180
aa(lp1211
I1214
aI2921
aI896
aI4793
aI5363
aa(lp1212
I2622
aI5049
aI3828
aI5390
aa(lp1213
I4938
aI3423
aa(lp1214
I1475
aI3934
aI3386
aI1215
aa(lp1215
I1016
aI3256
aI914
aI3012
aa(lp1216
I1739
aI4034
aa(lp1217
I1654
aa(lp1218
I913
aI5387
aI1837
aI3822
aa(lp1219
I788
aI1082
aI699
aI703
aa(lp1220
I4513
aa(lp1221
I4453
aI2025
aa(lp1222
I3926
aI3942
aI3946
aa(lp1223
I438
aa(lp1224
I2878
aI1887
aI3324
aa(lp1225
I5380
aI4907
aI1625
aa(lp1226
I3167
aa(lp1227
I4147
aa(lp1228
I969
aI3946
aI3100
aa(lp1229
I4139
aI3282
aa(lp1230
I355
aI2892
aa(lp1231
I900
aI2685
aa(lp1232
I734
aI706
aa(lp1233
I1522
aI1748
aI1748
aa(lp1234
I19
aI2766
aI4122
aa(lp1235
I6
aI4690
aa(lp1236
I506
aa(lp1237
I5375
aI1696
aI4287
aa(lp1238
I3845
aI2306
aI2711
aI3150
aI1327
aI3382
aa(lp1239
I3256
aI716
aI3340
aa(lp1240
I2290
aI3976
aa(lp1241
I1997
aI3022
aa(lp1242
I4597
aI4340
aa(lp1243
I2281
aI2952
aI1261
aI2249
aa(lp1244
I1543
aI503
aI1279
aa(lp1245
I3129
aa(lp1246
I673
aa(lp1247
I387
aI2051
aa(lp1248
I2904
aI3395
aI150
aa(lp1249
I2535
aI786
aI420
aa(lp1250
I5132
aa(lp1251
I3882
aa(lp1252
I970
aa(lp1253
I5498
aI4827
aI1992
aa(lp1254
I3891
aI1825
aI3747
aI4652
aa(lp1255
I1066
aI1466
aI889
aI5122
aI121
aa(lp1256
I3097
aI4487
aa(lp1257
I3839
aI3142
aI552
aI2084
aa(lp1258
I245
aa(lp1259
I1206
aI2847
aI5474
aI595
aa(lp1260
I879
aI1990
aI1954
aa(lp1261
I1241
aI845
aI2032
aa(lp1262
I162
aI1361
aa(lp1263
I2536
aI948
aI568
aa(lp1264
I17
aI3468
aa(lp1265
I651
aI870
aa(lp1266
I1098
aI5132
aI2896
aa(lp1267
I3789
aI4142
aa(lp1268
I1957
aI5208
aI3394
aI339
aI1264
aa(lp1269
I1816
aI406
aa(lp1270
I309
aI4157
aI3862
aI5361
aI4353
aa(lp1271
I1162
aI2864
aI3102
aI3095
aa(lp1272
I2065
aI483
aI1171
aa(lp1273
I2967
aI4353
aa(lp1274
I2785
aI935
aa(lp1275
I347
aI5404
aI1416
aI664
aI3319
aI1457
aI4107
aI2014
aI4329
aI2951
aI4225
aI5191
aI2540
aI5507
aa(lp1276
I2660
aI1741
aI3123
aa(lp1277
I2076
aI524
aa(lp1278
I495
aI2932
aI3984
aI654
aI1978
aa(lp1279
I4602
aI586
aa(lp1280
I1535
aa(lp1281
I598
aI4843
aI3131
aa(lp1282
I2906
aI2415
aa(lp1283
I3785
aa(lp1284
I4875
aI1500
aI1045
aa(lp1285
I3745
aI756
aI3048
aI2167
aa(lp1286
I2942
aI365
aI2961
aa(lp1287
I865
aI2368
aI5132
aa(lp1288
I3351
aI5279
aa(lp1289
I3000
aI2269
aa(lp1290
I2095
aI1674
aI2366
aI2366
aa(lp1291
I3101
aI1028
aI5113
aa(lp1292
I3740
aa(lp1293
I3819
aa(lp1294
I1419
aI2999
aI921
aI105
aI4433
aI1809
aa(lp1295
I255
aI2971
aI3880
aa(lp1296
I1119
aI956
aI547
aa(lp1297
I862
aI4880
aI2359
aI325
aI2721
aI5315
aa(lp1298
I4458
aI672
aI2003
aI4086
aa(lp1299
I1369
aI2111
aa(lp1300
I2783
aI180
aa(lp1301
I770
aI4668
aa(lp1302
I4324
aI4610
aI2254
aa(lp1303
I666
aI4714
aa(lp1304
I708
aI2167
aa(lp1305
I5068
aI1143
aI4963
aa(lp1306
I2149
aI1408
aa(lp1307
I2718
aI2074
aa(lp1308
I312
aI3174
aI374
aI4544
aI1635
aI4898
aI399
aa(lp1309
I398
aI2183
aa(lp1310
I3697
aI1541
aa(lp1311
I597
aI2277
aa(lp1312
I2193
aI3418
aa(lp1313
I2650
aI252
aI1444
aI1304
aI1229
aI4766
aI1685
aa(lp1314
I638
aI502
aI1725
aa(lp1315
I4004
aI1598
aI5517
aI2612
aa(lp1316
I2470
aI3635
aI275
aa(lp1317
I5118
aI5105
aa(lp1318
I850
aI1056
aa(lp1319
I2632
aI1968
aI2597
aa(lp1320
I5381
aa(lp1321
I789
aa(lp1322
I2148
aI89
aa(lp1323
I3091
aI2517
aI4153
aI2220
aI2758
aa(lp1324
I1503
aI1503
aI4975
aa(lp1325
I714
aI493
aI4813
aI545
aa(lp1326
I1203
aI2043
aI3515
aI2303
aa(lp1327
I5318
aI2981
aI280
aI3728
aa(lp1328
I2084
aI549
aI3784
aa(lp1329
I1461
aI3882
aa(lp1330
I713
aI773
aa(lp1331
I2823
aI1783
aI732
aI818
aI2131
aa(lp1332
I1128
aI3166
aa(lp1333
I322
aa(lp1334
I5381
aa(lp1335
I1133
aI2418
aI3681
aI737
aI2604
aI2265
aI796
aI2096
aI2305
aI4883
aI323
aI2077
aI2381
aa(lp1336
I3226
aI40
aI4719
aa(lp1337
I668
aI3797
aI5098
aI3841
aa(lp1338
I2290
aI3976
aI5254
aI4820
aa(lp1339
I2339
aI5153
aa(lp1340
I4257
aI2037
aI4823
aI415
aa(lp1341
I2300
aI3115
aI2739
aa(lp1342
I4911
aI1981
aI5115
aa(lp1343
I2115
aI2349
aI443
aa(lp1344
I2538
aI2923
aI557
aa(lp1345
I5277
aa(lp1346
I3895
aI1663
aa(lp1347
I1227
aI932
aa(lp1348
I3910
aa(lp1349
I1364
aI4439
aa(lp1350
I1775
aI1337
aI1337
aI4072
aa(lp1351
I3794
aI5136
aa(lp1352
I1925
aI5036
aa(lp1353
I4622
aI1608
aa(lp1354
I4174
aI1222
aI3716
aa(lp1355
I4916
aI102
aa(lp1356
I3226
aI40
aI4719
aa(lp1357
I4763
aI1681
aa(lp1358
I621
aI1905
aa(lp1359
I4409
aI2120
aI1024
aI4584
aI4724
aI4724
aI1944
aI1944
aI5180
aI3859
aI474
aI474
aI3944
aa(lp1360
I4220
aa(lp1361
I2699
aI109
aI4734
aI26
aI1117
aa(lp1362
I4729
aI4748
aI3030
aI1491
aI5354
aa(lp1363
I2446
aI2752
aa(lp1364
I3495
aI3534
aa(lp1365
I1958
aI3316
aI3752
aI203
aI2633
aI491
aI1435
aI719
aa(lp1366
I1920
aI4427
aa(lp1367
I5043
aI3909
aa(lp1368
I610
aI5361
aI1404
aI5341
aa(lp1369
I2396
aI22
aa(lp1370
I5023
aI1219
aa(lp1371
I971
aI368
aI2862
aI4772
aI5150
aI2462
aI3716
aI2527
aa(lp1372
I3151
aI506
aI553
aa(lp1373
I459
aI3235
aI2188
aI561
aI2657
aI3651
aa(lp1374
I4874
aI4874
aI3707
aI2912
aa(lp1375
I2622
aI1479
aa(lp1376
I1144
aI2127
aa(lp1377
I4760
aI3703
aa(lp1378
I4535
aI1219
aa(lp1379
I3557
aI2949
aI3205
aa(lp1380
I5391
aI4146
aa(lp1381
I3274
aI1833
aI1388
aI868
aI2259
aI5166
aI500
aI4001
aa(lp1382
I4220
aI4378
aa(lp1383
I5272
aa(lp1384
I4958
aa(lp1385
I2732
aa(lp1386
I3253
aI3621
aI5342
aa(lp1387
I1550
aa(lp1388
I5272
aa(lp1389
I783
aI5412
aI5372
aI2028
aI528
aa(lp1390
I5247
aI2365
aI3104
aa(lp1391
I4949
aI2472
aa(lp1392
I3222
aI1861
aI2291
aI5496
aa(lp1393
I4433
aI2015
aI1963
aa(lp1394
I3888
aI3526
aI3407
aI2839
aI2363
aI4272
aa(lp1395
I2514
aI1146
aI4173
aa(lp1396
I1727
aI4
aa(lp1397
I3814
aI3238
aI4393
aa(lp1398
I825
aI4239
aa(lp1399
I508
aI5494
aa(lp1400
I5208
aI3394
aI1957
aa(lp1401
I947
aa(lp1402
I1109
aI3528
aI817
aI2498
aa(lp1403
I4164
aI5001
aI4665
aa(lp1404
I4181
aI5421
aa(lp1405
I2017
aa(lp1406
I829
aI2141
aa(lp1407
I3669
aI265
aI874
aa(lp1408
I4361
aI4137
aI229
aI229
aI2148
aI2148
aa(lp1409
I2881
aI1639
aI4301
aa(lp1410
I1415
aI5273
aa(lp1411
I3736
aI117
aI401
aI2500
aI2180
aa(lp1412
I890
aI3852
aI5254
aI4820
aI2224
aa(lp1413
I1715
aI4342
aI3925
aa(lp1414
I650
aI640
aI4996
aI3411
aa(lp1415
I5357
aI4029
aI2882
aI5542
aa(lp1416
I4560
aa(lp1417
I964
aI2847
aa(lp1418
I82
aI3951
aI153
aa(lp1419
I671
aI3614
aI4783
aa(lp1420
I1227
aa(lp1421
I1464
aI3126
aa(lp1422
I2552
aI1426
aI3420
aI4161
aI3014
aa(lp1423
I4932
aa(lp1424
I4695
aI2687
aI4695
aI3853
aI534
aa(lp1425
I2495
aa(lp1426
I3340
aI716
aI100
aI1016
aa(lp1427
I3811
aI721
aI4793
aa(lp1428
I4414
aI5272
aa(lp1429
I1318
aI5430
aI3210
aI680
aI1592
aI834
aa(lp1430
I1958
aa(lp1431
I5533
aI1390
aI725
aI2102
aa(lp1432
I3212
aI3755
aI1758
aa(lp1433
I3910
aI5415
aa(lp1434
I5471
aI1537
aI4117
aa(lp1435
I4682
aa(lp1436
I5476
aI761
aa(lp1437
I1949
aI4417
aI1648
aa(lp1438
I5157
aI5254
aI3065
aI3137
aa(lp1439
I2058
aI2384
aI771
aa(lp1440
I4206
aa(lp1441
I4100
aI3211
aI1588
aa(lp1442
I2389
aI5020
aI3782
aI5216
aI5216
aa(lp1443
I333
aI4585
aI4068
aa(lp1444
I262
aI3468
aI4662
aa(lp1445
I5131
aI1707
aa(lp1446
I793
aa(lp1447
I3946
aI1178
aI3926
aa(lp1448
I5265
aI4990
aI433
aa(lp1449
I208
aI2320
aI710
aI3335
aa(lp1450
I1417
aI3724
aa(lp1451
I4139
aI4818
aI945
aa(lp1452
I696
aI1681
aa(lp1453
I1974
aa(lp1454
I4004
aI25
aI5517
aa(lp1455
I2289
aI386
aI4495
aa(lp1456
I707
aI2135
aa(lp1457
I3394
aI2770
aI45
aI1957
aa(lp1458
I1525
aI3103
aI3670
aa(lp1459
I1652
aI2167
aI23
aI504
aa(lp1460
I3304
aa(lp1461
I225
aI401
aI870
aa(lp1462
I129
aI4476
aa(lp1463
I1885
aa(lp1464
I1668
aI3548
aI2205
aI808
aa(lp1465
I1090
aI1589
aI305
aa(lp1466
I2413
aI2267
aa(lp1467
I3416
aa(lp1468
I3356
aI437
aI3356
aI437
aa(lp1469
I880
aI2629
aa(lp1470
I4959
aI4997
aI4088
aa(lp1471
I172
aI642
aa(lp1472
I617
aI150
aa(lp1473
I3896
aI5452
aa(lp1474
I2047
aI4170
aa(lp1475
I1223
aI992
aa(lp1476
I2933
aI2221
aa(lp1477
I3088
aa(lp1478
I1565
aI670
aa(lp1479
I3530
aI2338
aI527
aI2446
aa(lp1480
I4106
aI1829
aI2362
aI1396
aa(lp1481
I1308
aa(lp1482
I5010
aI4833
aI5338
aI1751
aI4316
aa(lp1483
I728
aa(lp1484
I4305
aI1379
aI1206
aa(lp1485
I1233
aI4561
aI1246
aa(lp1486
I1291
aI5528
aI4853
aa(lp1487
I2853
aI4893
aI2216
aa(lp1488
I3882
aa(lp1489
I498
aI934
aI1924
aI4248
aI3744
aI782
aa(lp1490
I4562
aI1199
aI4905
aI3113
aI3947
aa(lp1491
I4854
aI3138
aI2690
aI2690
aI2918
aI2918
aI5399
aa(lp1492
I1633
aI1880
aa(lp1493
I980
aI2037
aI4337
aa(lp1494
I489
aI805
aa(lp1495
I240
aa(lp1496
I4291
aI1958
aI1620
aI4291
aa(lp1497
I673
aI1432
aI3715
aI1107
aI5219
aa(lp1498
I207
aI1681
aI2059
aa(lp1499
I3443
aa(lp1500
I968
aI3655
aI1290
aI3912
aI2371
aa(lp1501
I5299
aI5299
aI1076
aI378
aa(lp1502
I548
aI2167
aI1106
aa(lp1503
I2891
aI5140
aa(lp1504
I4152
aI2523
aI328
aI5158
aa(lp1505
I1307
aI3093
aI4518
aI1796
aa(lp1506
I2837
aI1372
aI4238
aI1768
aI1324
aa(lp1507
I2382
aI2890
aI1662
aa(lp1508
I1940
aI2787
aa(lp1509
I2047
aa(lp1510
I3908
aI4589
aI5199
aI5199
aI3360
aI4537
aI1586
aI2977
aI4295
aI273
aI2278
aI2140
aI294
aI1251
aI4506
aI929
aa(lp1511
I531
aI3758
aI882
aI2241
aa(lp1512
I1642
aI3765
aI2146
aI2146
aI4213
aI1276
aa(lp1513
I5250
aI5211
aa(lp1514
I4993
aI1833
aa(lp1515
I5130
aI4967
aa(lp1516
I3346
aI3345
aI1694
aI2344
aI3245
aI4780
aa(lp1517
I1773
aI802
aI4938
aa(lp1518
I3684
aI5364
aI2194
aa(lp1519
I4980
aI5306
aa(lp1520
I4193
aI1352
aI5455
aa(lp1521
I1882
aI3311
aa(lp1522
I2262
aI3829
aI3661
aa(lp1523
I3483
aa(lp1524
I3783
aI5491
aa(lp1525
I5490
aI5062
aI1601
aa(lp1526
I383
aI3484
aa(lp1527
I1256
aI1406
aI381
aI2631
aI2978
aI511
aI231
aI4382
aI2843
aI2387
aI4761
aI4083
aI2320
aI2479
aI835
aa(lp1528
I174
aI1505
aI5377
aI1742
aa(lp1529
I5136
aI4243
aI4043
aa(lp1530
I5410
aI439
aI2528
aa(lp1531
I4823
aI4823
aI2964
aI5264
aI5264
aI879
aI879
aa(lp1532
I2036
aI1600
aa(lp1533
I3966
aI4801
aI1171
aI5198
aa(lp1534
I4554
aI4855
aa(lp1535
I2794
aa(lp1536
I2985
aI4205
aI1030
aI1118
aI2319
aI1355
aI1051
aI331
aI1
aI4865
aa(lp1537
I4443
aI2871
aa(lp1538
I2288
aI2910
aI1524
aa(lp1539
I3786
aa(lp1540
I144
aI4684
aa(lp1541
I4158
aa(lp1542
I5129
aa(lp1543
I4731
aI2499
aI1335
aa(lp1544
I4670
aa(lp1545
I2314
aI1739
aI1681
aa(lp1546
I2471
aI764
aI4814
aI5283
aI2099
aa(lp1547
I3819
aa(lp1548
I1626
aI4755
aI4686
aI2914
aa(lp1549
I982
aI982
aI4563
aI5178
aa(lp1550
I4859
aa(lp1551
I4136
aI1064
aI5448
aa(lp1552
I3163
aI4032
aI5064
aI4041
aI2280
aa(lp1553
I2320
aa(lp1554
I4764
aI3044
aI2329
aa(lp1555
I393
aI2167
aa(lp1556
I2035
aI4216
aI3448
aa(lp1557
I2680
aI5035
aa(lp1558
I4057
aI3063
aa(lp1559
I4000
aI2567
aI4977
aI1467
aI2858
aa(lp1560
I5318
aI2981
aI280
aI3728
aa(lp1561
I987
aI5350
aa(lp1562
I4379
aI5251
aa(lp1563
I1384
aI4021
aI3774
aI432
aa(lp1564
I5346
aI606
aI2502
aI4685
aa(lp1565
I1781
aI1417
aa(lp1566
I2342
aa(lp1567
I3006
aI4779
aI2483
aa(lp1568
I5254
aI3065
aa(lp1569
I3722
aI4200
aa(lp1570
I3737
aa(lp1571
I72
aI2078
aa(lp1572
I5235
aI3052
aI3058
aI2909
aa(lp1573
I990
aI985
aI2358
aI2542
aa(lp1574
I4455
aI1829
aI2362
aa(lp1575
I4488
aI1546
aa(lp1576
I3729
aI428
aI2676
aI1022
aI2127
aa(lp1577
I216
aI3019
aI2180
aI3991
aa(lp1578
I1844
aI4386
aI1250
aa(lp1579
I2630
aI1750
aI3576
aa(lp1580
I3129
aa(lp1581
I5136
aI3767
aa(lp1582
I3591
aI869
aI3948
aa(lp1583
I2525
aI720
aa(lp1584
I2213
aI155
aa(lp1585
I1335
aI2238
aI5255
aa(lp1586
I890
aI5254
aI4693
aI3065
aa(lp1587
I2473
aI2169
aI5051
aI3139
aI2865
aI710
aa(lp1588
I5002
aa(lp1589
I2887
aI1761
aI4894
aI4606
aa(lp1590
I2355
aa(lp1591
I1302
aI2943
aI4742
aI5416
aI2580
aa(lp1592
I1984
aI2497
aa(lp1593
I1211
aI4631
aa(lp1594
I242
aI4719
aI694
aa(lp1595
I3539
aI3017
aI1590
aa(lp1596
I3832
aI3832
aI2712
aI1239
aa(lp1597
I5485
aI1673
aI866
aI1710
aI3164
aa(lp1598
I870
aI3041
aa(lp1599
I1857
aI2287
aa(lp1600
I5483
aI4212
aI4413
aI5038
aI3434
aa(lp1601
I4550
aa(lp1602
I3678
aI1591
aI3020
aa(lp1603
I1653
aI5537
aa(lp1604
I2042
aI1665
aa(lp1605
I881
aI3450
aI3492
aI1212
aa(lp1606
I244
aI4118
aI1113
aa(lp1607
I1965
aI2285
aI1298
aa(lp1608
I2276
aI28
aI4162
aI4035
aa(lp1609
I4095
aI1293
aI3156
aa(lp1610
I1752
aI1600
aa(lp1611
I1565
aI1811
aa(lp1612
I981
aI1338
aI1507
aa(lp1613
I3909
aa(lp1614
I322
aa(lp1615
I3140
aI5171
aa(lp1616
I4434
aI2274
aa(lp1617
I2465
aa(lp1618
I4016
aI5537
aa(lp1619
I2830
aI1036
aI1164
aa(lp1620
I4683
aI4683
aI350
aI350
aa(lp1621
I2186
aI2993
aI1866
aI2614
aa(lp1622
I419
aa(lp1623
I198
aI3037
aI2444
aI1154
aa(lp1624
I4389
aI3692
aI4243
aa(lp1625
I4062
aI464
aI2970
aa(lp1626
I5094
aI93
aI2593
aI4013
aa(lp1627
I3761
aI2013
aI691
aa(lp1628
I1638
aI5054
aa(lp1629
I3500
aI1216
aI1934
aa(lp1630
I3383
aa(lp1631
I4052
aI2229
aI539
aa(lp1632
I1464
aa(lp1633
I3213
aI4828
aa(lp1634
I5294
aI5094
aa(lp1635
I1713
aI3856
aI2789
aI3809
aI2740
aI3376
aI4981
aI1405
aa(lp1636
I384
aI4456
aa(lp1637
I4676
aI846
aa(lp1638
I675
aa(lp1639
I4923
aI4553
aa(lp1640
I3761
aI2013
aI4454
aa(lp1641
I2069
aI4142
aa(lp1642
I5137
aI4577
aI3734
aa(lp1643
I3121
aI2595
aI2172
aI3515
aa(lp1644
I1253
aI3056
aa(lp1645
I2960
aI5458
aI3300
aI1166
aI3639
aI5233
aa(lp1646
I2824
aI5494
aa(lp1647
I3739
aI1712
aI4496
aI4556
aa(lp1648
I1652
aI2167
aI2751
aI504
aI3111
aa(lp1649
I5195
aI89
aa(lp1650
I1688
aI4723
aI4838
aI499
aa(lp1651
I2118
aI755
aI1656
aa(lp1652
I1862
aI2957
aI2547
aI3011
aa(lp1653
I4708
aI2836
aI1822
aa(lp1654
I993
aI4852
aI4051
aI4461
aa(lp1655
I5049
aI3129
aa(lp1656
I1311
aI1912
aI5425
aa(lp1657
I2334
aI201
aI390
aI2175
aa(lp1658
I1713
aI2932
aI654
aa(lp1659
I1526
aI1815
aa(lp1660
I5381
aa(lp1661
I5269
aI1104
aa(lp1662
I1816
aI406
aI1669
aa(lp1663
I1143
aI1278
aa(lp1664
I3207
aI3756
aI2178
aI3932
aI4487
aa(lp1665
I537
aI2821
aI1824
aa(lp1666
I696
aI1681
aa(lp1667
I3705
aI3541
aI3760
aI4204
aa(lp1668
I4310
aI1686
aa(lp1669
I5355
aI2153
aI5081
aI3082
aI1336
aI939
aa(lp1670
I2346
aI3420
aI1426
aI4161
aI3014
aa(lp1671
I3625
aI3577
aI1297
aI3406
aa(lp1672
I4503
aa(lp1673
I2602
aI114
aa(lp1674
I4908
aI3717
aI313
aI2990
aI1797
aa(lp1675
I1627
aI1236
aa(lp1676
I1291
aa(lp1677
I3871
aa(lp1678
I4276
aI2164
aI669
aa(lp1679
I1132
aI3690
aa(lp1680
I3263
aI5527
aa(lp1681
I4402
aI1186
aI2393
aa(lp1682
I3377
aI4115
aI150
aI2017
aa(lp1683
I2853
aI4893
aI2216
aa(lp1684
I1886
aa(lp1685
I1454
aI4237
aI4092
aa(lp1686
I1844
aI4386
aa(lp1687
I3405
aI2147
aI963
aI2033
aI4074
aI190
aI147
aI2584
aI4374
aI1820
aa(lp1688
I1698
aI5502
aI3266
aI3759
aa(lp1689
I4684
aI144
aa(lp1690
I1422
aI3706
aI936
aa(lp1691
I5010
aI4833
aa(lp1692
I5049
aI2407
aI4932
aI1948
aa(lp1693
I3042
aI1040
aI925
aI529
aI2136
aI4083
aI4412
aI1966
aI3329
aI59
aI3603
aI1362
aI5398
aa(lp1694
I1941
aI524
aa(lp1695
I1016
aI5057
aI4320
aI5303
aI4267
aI3340
aI4119
aI3256
aI5057
aI4320
aI5303
aI644
aa(lp1696
I1284
aI4687
aI5025
aa(lp1697
I2322
aI425
aa(lp1698
I28
aa(lp1699
I357
aI2867
aa(lp1700
I4729
aI1491
aI3573
aa(lp1701
I2327
aI5053
aa(lp1702
I1499
aI5346
aI5087
aa(lp1703
I3735
aI1374
aa(lp1704
I443
aI2349
aI856
aa(lp1705
I5381
aa(lp1706
I905
aI3769
aI4572
aa(lp1707
I778
aI2695
aI5152
aI3606
aa(lp1708
I4681
aI2666
aa(lp1709
I193
aI4390
aa(lp1710
I3510
aI3479
aa(lp1711
I5008
aI4277
aI1191
aI5428
aI5074
aa(lp1712
I1409
aI4183
aI2851
aI3906
aI2064
aa(lp1713
I825
aI4239
aa(lp1714
I4306
aI4864
aa(lp1715
I1535
aa(lp1716
I5263
aI1691
aI2246
aI4377
aI2105
aI4785
aa(lp1717
I4591
aI3589
aI4591
aI3521
aI3521
aI5532
aI5532
aa(lp1718
I4933
aI4314
aI263
aa(lp1719
I816
aI5160
aI4605
aI733
aa(lp1720
I3729
aI5459
aI1874
aa(lp1721
I1386
aa(lp1722
I3421
aI1118
aI4932
aa(lp1723
I5385
aI5200
aa(lp1724
I3625
aI3577
aI1297
aI3406
aa(lp1725
I4134
aa(lp1726
I3088
aI1370
aa(lp1727
I2394
aI3332
aI3658
aI1576
aI3264
aa(lp1728
I2820
aI4091
aI2944
aa(lp1729
I5006
aI4094
aI5030
aa(lp1730
I243
aI961
aI506
aa(lp1731
I5535
aI3588
aI1169
aa(lp1732
I2308
aa(lp1733
I4812
aa(lp1734
I242
aI694
aI1420
aI3098
aa(lp1735
I2800
aI5376
aa(lp1736
I4993
aI1580
aI1388
aa(lp1737
I3252
aI1848
aI4796
aa(lp1738
I4881
aI3962
aa(lp1739
I450
aI2969
aI3378
aI2625
aI5202
aI2723
aa(lp1740
I3538
aa(lp1741
I4955
aI1387
aa(lp1742
I504
aI556
aI2751
aI998
aa(lp1743
I5194
aI4188
aI1134
aI1055
aa(lp1744
I288
aa(lp1745
I5212
aI4405
aI2423
aa(lp1746
I2681
aI5184
aa(lp1747
I1094
aa(lp1748
I3922
aI2347
aI1139
aa(lp1749
I760
aI1159
aI2607
aI4170
aa(lp1750
I1735
aI1666
aI2936
aI5468
aI5241
aa(lp1751
I5017
aa(lp1752
I2691
aI823
aa(lp1753
I5454
aI146
aa(lp1754
I523
aI570
aI2017
aa(lp1755
I558
aI77
aI4371
aa(lp1756
I5501
aI3598
aI1655
aa(lp1757
I4373
aa(lp1758
I357
aI2867
aa(lp1759
I4842
aI1793
aI632
aI2746
aI2729
aI2724
aI1778
aI2846
aI4637
aI1870
aI200
aa(lp1760
I4667
aa(lp1761
I4486
aa(lp1762
I1124
aI1994
aI3986
aI2079
aa(lp1763
I5484
aa(lp1764
I1333
aI372
aI3426
aI3470
aI1873
aI4830
aI2167
aa(lp1765
I4414
aI2560
aI5159
aI4739
aa(lp1766
I3034
aI4371
aa(lp1767
I4694
aI4992
aI3251
aa(lp1768
I4991
aI4874
aI3707
aa(lp1769
I4554
aI4855
aI1273
aa(lp1770
I1757
aI1850
aI4211
aI5070
aa(lp1771
I3840
aI4273
aI2494
aa(lp1772
I3283
aI1374
aa(lp1773
I2838
aI1603
aI4613
aa(lp1774
I2298
aI637
aI591
aI4614
aI1831
aI1116
aI1632
aI341
aI2218
aI639
aI5389
aa(lp1775
I4011
aI4426
aa(lp1776
I4334
aI2577
aI4582
aa(lp1777
I1596
aI4668
aI1285
aI563
aI4392
aa(lp1778
I1603
aI4613
aa(lp1779
I69
aI473
aa(lp1780
I180
aa(lp1781
I665
aI5393
aa(lp1782
I4302
aI5392
aI2482
aI4775
aI3970
aI2417
aa(lp1783
I4821
aI4762
aa(lp1784
I5187
aa(lp1785
I4308
aI4311
aI689
aI3990
aI2550
aa(lp1786
I4106
aI1829
aI2362
aI1396
aa(lp1787
I3181
aI5217
aa(lp1788
I5381
aa(lp1789
I3889
aI898
aI3743
aI1518
aa(lp1790
I2532
aI3089
aa(lp1791
I2076
aI524
aa(lp1792
I3198
aI563
aI1018
aa(lp1793
I6
aI4690
aa(lp1794
I1473
aI2253
aI3902
aa(lp1795
I2399
aI4179
aI2991
aI3429
aI2430
aI3823
aI3973
aa(lp1796
I3067
aI4487
aa(lp1797
I572
aa(lp1798
I4897
aa(lp1799
I242
aI126
aI4551
aI3032
aI1788
aa(lp1800
I3518
aa(lp1801
I5284
aa(lp1802
I1440
aI4232
aI2353
aI4044
aI1551
aI440
aI4296
aa(lp1803
I4795
aI1281
aa(lp1804
I112
aI5041
aI1403
aI5071
aa(lp1805
I3323
aI4098
aa(lp1806
I2323
aI2426
aI5176
aI4096
aa(lp1807
I2480
aI4962
aI3777
aa(lp1808
I3554
aI2296
aa(lp1809
I4407
aI2733
aI3031
aa(lp1810
I81
aa(lp1811
I1850
aI5499
aa(lp1812
I4483
aI5368
aa(lp1813
I388
aa(lp1814
I219
aa(lp1815
I3524
aI5330
aa(lp1816
I4510
aI3959
aa(lp1817
I2916
aI2022
aI3106
aa(lp1818
I4619
aI4056
aI3135
aI4377
aa(lp1819
I1736
aa(lp1820
I2328
aa(lp1821
I202
aI5021
aI2940
aa(lp1822
I2769
aI3900
aI833
aa(lp1823
I2657
aI2931
aI576
aI3651
aI837
aI3098
aa(lp1824
I1261
aI2952
aa(lp1825
I781
aa(lp1826
I2496
aI5183
aI645
aa(lp1827
I1140
aI3851
aI3851
aI1417
aI1417
aa(lp1828
I5503
aI4629
aI3711
aI2404
aa(lp1829
I3910
aa(lp1830
I2530
aI4987
aa(lp1831
I1877
aa(lp1832
I4414
aI5272
aa(lp1833
I384
aa(lp1834
I3522
aa(lp1835
I1213
aI1081
aI1619
aa(lp1836
I3939
aI2547
aI3112
aI3011
aI2670
aa(lp1837
I4519
aI728
aa(lp1838
I304
aI3065
aI2646
aa(lp1839
I751
aI4440
aI4474
aa(lp1840
I5010
aI4316
aI4583
aI4833
aa(lp1841
I1720
aI5307
aI5135
aa(lp1842
I3261
aI3675
aI2855
aI1762
aa(lp1843
I4998
aI5086
aa(lp1844
I5381
aa(lp1845
I4352
aI2615
aI2007
aa(lp1846
I3404
aa(lp1847
I4279
aI775
aI3985
aa(lp1848
I1799
aa(lp1849
I767
aI715
aI3475
aa(lp1850
I2069
aI4142
aa(lp1851
I3067
aI2594
aI4860
aI4487
aa(lp1852
I3858
aI4221
aI931
aI1753
aI3057
aI2870
aa(lp1853
I842
aI453
aI224
aa(lp1854
I5170
aI404
aa(lp1855
I1016
aI4849
aI716
aI4267
aa(lp1856
I3910
aa(lp1857
I731
aa(lp1858
I2448
aI159
aI1493
aa(lp1859
I38
aI3219
aI4380
aI2044
aI3127
aa(lp1860
I3689
aI1329
aa(lp1861
I2018
aI4641
aa(lp1862
I2734
aa(lp1863
I2869
aI1881
aI5434
aa(lp1864
I2963
aa(lp1865
I1555
aI653
aI4521
aI3644
aa(lp1866
I2074
aa(lp1867
I749
aI5155
aa(lp1868
I4414
aI2560
aI5159
aI4739
aa(lp1869
I2437
aI633
aI4391
aI5523
aI758
aI3288
aa(lp1870
I523
aa(lp1871
I4684
aI144
aa(lp1872
I4874
aI3707
aI2912
aa(lp1873
I4707
aI540
aI1770
aa(lp1874
I2609
aI870
aa(lp1875
I4555
aI3249
aI2103
aI2130
aa(lp1876
I295
aI3806
aI843
aI4154
aa(lp1877
I258
aI89
aa(lp1878
I1920
aI4427
aa(lp1879
I5335
aI2626
aI1037
aa(lp1880
I3516
aI4645
aa(lp1881
I1789
aI3371
aI1986
aI3368
aa(lp1882
I1162
aI3095
aa(lp1883
I1665
aI2443
aa(lp1884
I686
aI4367
aa(lp1885
I3473
aa(lp1886
I226
aI2290
aI3976
aI4820
aa(lp1887
I3721
aI729
aI2671
aI5433
aa(lp1888
I4280
aI3200
aI750
aI3918
aI2087
aI1849
aI2388
aa(lp1889
I1628
aI5309
aI5232
aa(lp1890
I2320
aI2820
aI2315
aI2365
aI2320
aI4301
aI2820
aa(lp1891
I1238
aI4777
aI3668
aI3691
aa(lp1892
I2168
aI5184
aI3604
aa(lp1893
I3516
aI4525
aa(lp1894
I4653
aI5064
aI3163
aa(lp1895
I4436
aI1299
aI3917
aI3919
aI4411
aI2840
aI4473
aa(lp1896
I665
aI5393
aa(lp1897
I2932
aI654
aI3114
aa(lp1898
I5382
aI513
aI4806
aa(lp1899
I641
aa(lp1900
I3972
aI1001
aI5046
aI2610
aa(lp1901
I387
aI2051
aa(lp1902
I46
aI3933
aa(lp1903
I1479
aI2407
aa(lp1904
I1925
aI5036
aI1665
aI2443
aa(lp1905
I3165
aI1784
aa(lp1906
I2878
aI1887
aI3305
aI1534
aI2775
aa(lp1907
I1273
aI1962
aI4721
aa(lp1908
I4918
aI353
aI3850
aI4756
aI4071
aI3808
aI2271
aI4743
aI4743
aI342
aa(lp1909
I2137
aI3452
aa(lp1910
I1587
aa(lp1911
I4184
aI4481
aI3551
aa(lp1912
I5327
aI4718
aI5288
aa(lp1913
I1999
aI4704
aI3278
aI316
aI340
aI2859
aa(lp1914
I1101
aI2816
aI103
aa(lp1915
I3084
aa(lp1916
I2845
aI3927
aI3604
aa(lp1917
I4442
aI5379
aa(lp1918
I4872
aI919
aI469
aa(lp1919
I2790
aI2875
aI4338
aI4749
aa(lp1920
I2004
aI4198
aI3776
aI5456
aI3248
aI3659
aa(lp1921
I4773
aa(lp1922
I4268
aI2119
aI1308
aa(lp1923
I1189
aI390
aI1536
aa(lp1924
I5264
aI879
aI5348
aa(lp1925
I1070
aI2262
aI3195
aa(lp1926
I3394
aI5208
aI1957
aI2809
aI1264
aa(lp1927
I855
aa(lp1928
I605
aI1945
aa(lp1929
I4888
aI1754
aI698
aI249
aI4400
aI4273
aI3977
aI3791
aa(lp1930
I2203
aI470
aa(lp1931
I4395
aa(lp1932
I5120
aa(lp1933
I2347
aI5192
aI411
aa(lp1934
I461
aI560
aI1139
aa(lp1935
I2848
aI4530
aa(lp1936
I42
aI5061
aa(lp1937
I1995
aI1287
aI2664
aI4419
aI3155
aa(lp1938
I3062
aI1228
aa(lp1939
I5506
aI1639
aa(lp1940
I3137
aI4028
aI5254
aI3065
aa(lp1941
I3385
aI4078
aI2032
aI3347
aa(lp1942
I5539
aI616
aI2900
aa(lp1943
I450
aa(lp1944
I3979
aa(lp1945
I212
aI2756
aI1322
aa(lp1946
I1399
aI2623
aa(lp1947
I3199
aI601
aI3143
aa(lp1948
I4875
aI1500
aI1045
aa(lp1949
I2759
aI285
aI5215
aa(lp1950
I345
aI3742
aa(lp1951
I2465
aa(lp1952
I1399
aI2623
aa(lp1953
I2228
aI940
aI95
aI2464
aI3033
aa(lp1954
I1652
aI2167
aI504
aI2894
aI284
aI2751
aI2826
aa(lp1955
I2432
aa(lp1956
I1464
aa(lp1957
I4075
aI4799
aI1074
aa(lp1958
I2907
aa(lp1959
I3365
aI4194
aI3110
aa(lp1960
I37
aI4741
aI5149
aI2343
aI562
aI1029
aI3601
aa(lp1961
I4144
aI314
aI3924
aI1902
aI4861
aa(lp1962
I4295
aa(lp1963
I4888
aI698
aI249
aI3977
aa(lp1964
I1818
aI1492
aI3326
aI2257
aa(lp1965
I3654
aI510
aI4761
aa(lp1966
I2841
aI2233
aI5069
aI806
aI2116
aa(lp1967
I4873
aI5469
aI2762
aI2762
aI5534
aI5534
aa(lp1968
I322
aI4861
aa(lp1969
I2558
aI3289
aI4844
aa(lp1970
I5376
aI1903
aI3116
aa(lp1971
I4965
aI2727
aI2526
aI2100
aa(lp1972
I339
aI3394
aI1957
aI5429
aa(lp1973
I774
aI3843
aI1718
aa(lp1974
I2705
aI1658
aa(lp1975
I1621
aI3976
aa(lp1976
I2024
aa(lp1977
I5261
aI5103
aa(lp1978
I3531
aI4339
aI1218
aI3035
aI646
aI170
aa(lp1979
I3187
aa(lp1980
I3489
aI3444
aa(lp1981
I5272
aI4414
aa(lp1982
I726
aI3842
aI4048
aa(lp1983
I1709
aI1843
aa(lp1984
I2619
aI2510
aI1312
aI3184
aI1471
aI1312
aa(lp1985
I1957
aI3394
aI5208
aI2809
aI1264
aa(lp1986
I1109
aI3528
aI2498
aa(lp1987
I780
aI5094
aa(lp1988
I1346
aa(lp1989
I1980
aI875
aI728
aa(lp1990
I2483
aI5085
aI1928
aa(lp1991
I3421
aI1118
aI1172
aI4932
aa(lp1992
I1748
aI5245
aa(lp1993
I367
aI1549
aa(lp1994
I5522
aI616
aI1303
aI4036
aa(lp1995
I3271
aI2927
aa(lp1996
I1976
aI2659
aa(lp1997
I3598
aa(lp1998
I3694
aI776
aI1641
aI1234
aI2658
aI3203
aI5
aa(lp1999
I4792
aa(lp2000
I2885
aI1523
aI3920
aa(lp2001
I2880
aa(lp2002
I366
aI2121
aI4516
aI2173
aI1131
aI2576
aI139
aI5147
aI1383
aI1733
aI4233
aI4278
aa(lp2003
I1150
aI3910
aa(lp2004
I3583
aI3561
aI28
aI4187
aa(lp2005
I655
aI840
aa(lp2006
I2065
aI483
aI1171
aa(lp2007
I2152
aI5034
aI5486
aI4948
aa(lp2008
I4850
aI4529
aI5300
aI525
aI4246
aI979
aa(lp2009
I823
aI3718
aI975
aI4580
aa(lp2010
I3572
aa(lp2011
I4954
aI4868
aI3451
aa(lp2012
I3014
aI1426
aI4161
aI3420
aa(lp2013
I3982
aI5509
aa(lp2014
I1311
aI1912
aI5425
aa(lp2015
I2652
aI104
aI4547
aI2935
aI801
aa(lp2016
I5087
aI4685
aa(lp2017
I4888
aI698
aI249
aI3977
aa(lp2018
I2286
aI1943
aa(lp2019
I5509
aI3982
aa(lp2020
I1314
aI3696
aa(lp2021
I4966
aI2239
aI2362
aa(lp2022
I2050
aI995
aI2273
aa(lp2023
I3882
aa(lp2024
I2624
aI2376
aI4082
aI3616
aa(lp2025
I3190
aa(lp2026
I2495
aa(lp2027
I4018
aa(lp2028
I2017
aa(lp2029
I4339
aI3035
aI646
aI170
aa(lp2030
I5224
aI2114
aa(lp2031
I841
aI3148
aI5394
aI5320
aa(lp2032
I1413
aa(lp2033
I167
aI5442
aI4158
aI3698
aI5419
aa(lp2034
I1675
aI1462
aa(lp2035
I4231
aI944
aI1566
aI4696
aI2997
aa(lp2036
I4650
aI2089
aI2209
aa(lp2037
I2895
aI3746
aI3436
aa(lp2038
I3690
aI588
aa(lp2039
I5495
aI2447
aa(lp2040
I1111
aa(lp2041
I1369
aI2111
aa(lp2042
I2481
aI907
aI541
aI1786
aI3501
aI4258
aa(lp2043
I1906
aI180
aI2801
aI5164
aa(lp2044
I1329
aI3689
aa(lp2045
I1110
aI242
aI2032
aa(lp2046
I448
aa(lp2047
I1958
aa(lp2048
I1970
aI5354
aI4729
aI2819
aa(lp2049
I4944
aI4803
aI4668
aa(lp2050
I4740
aI4047
aI978
aI87
aI2332
aa(lp2051
I2543
aI3070
aI2899
aI188
aI2227
aI864
aa(lp2052
I424
aI4667
aa(lp2053
I2797
aI1344
aI1244
aa(lp2054
I147
aI4074
aa(lp2055
I98
aI1204
aa(lp2056
I3260
aI1324
aa(lp2057
I2742
aI996
aI1378
aa(lp2058
I5101
aa(lp2059
I1436
aI4915
aI3010
aa(lp2060
I5287
aI435
aI2998
aI3860
aa(lp2061
I3751
aI1154
aI2312
aa(lp2062
I2135
aI5126
aa(lp2063
I2822
aI4399
aI5228
aa(lp2064
I3996
aa(lp2065
I1836
aI3169
aI4234
aa(lp2066
I4142
aI2069
aI4397
aI830
aa(lp2067
I400
aI4416
aI3512
aI5117
aa(lp2068
I2919
aI2475
aa(lp2069
I4254
aI1367
aa(lp2070
I1227
aI932
aa(lp2071
I1957
aI5208
aI2809
aI3394
aI1264
aa(lp2072
I2068
aa(lp2073
I3746
aI4698
aI4717
aa(lp2074
I1969
aI3996
aa(lp2075
I2468
aI4260
aI4715
aI5420
aI2032
aa(lp2076
I4163
aa(lp2077
I2097
aI1240
aa(lp2078
I1044
aI4252
aI1044
aa(lp2079
I4373
aa(lp2080
I2919
aI2475
aa(lp2081
I1465
aI2380
aa(lp2082
I5384
aI212
aa(lp2083
I2842
aI1836
aa(lp2084
I3661
aa(lp2085
I85
aI2651
aI5058
aI4363
aa(lp2086
I3955
aI3446
aI4247
aI3135
aa(lp2087
I1668
aI3548
aI2205
aI808
aa(lp2088
I504
aI1652
aI2167
aI2751
aa(lp2089
I4467
aI4467
aI1417
aI1417
aI3391
aI3391
aa(lp2090
I4809
aI3558
aI1147
aa(lp2091
I3007
aI1125
aa(lp2092
I3162
aI3638
aI3890
aI2666
aI3514
aI4681
aI2420
aI1942
aI4964
aa(lp2093
I3369
aI2017
aI3263
aa(lp2094
I3578
aI2072
aa(lp2095
I1636
aI5004
aI3349
aI1731
aa(lp2096
I4410
aI1114
aa(lp2097
I373
aI1963
aa(lp2098
I1317
aI2785
aI935
aI2484
aa(lp2099
I4214
aI1661
aa(lp2100
I3866
aI4984
aa(lp2101
I3725
aI5451
aa(lp2102
I3910
aa(lp2103
I3874
aI4115
aI3077
aI91
aI3154
aI1928
aa(lp2104
I4317
aI634
aa(lp2105
I4731
aI832
aa(lp2106
I5321
aI1019
aI3981
aa(lp2107
I1487
aI3
aa(lp2108
I2163
aa(lp2109
I4999
aa(lp2110
I1067
aI4590
aa(lp2111
I2713
aI3224
aI2714
aa(lp2112
I1596
aa(lp2113
I2705
aI5119
aa(lp2114
I1752
aI1600
aa(lp2115
I4598
aa(lp2116
I4313
aI5540
aI5229
aa(lp2117
I3575
aI937
aI698
aI938
aa(lp2118
I3343
aI47
aa(lp2119
I5531
aa(lp2120
I493
aI3441
aI4449
aI3469
aI714
aI2294
aI1089
aI545
aa(lp2121
I2953
aI1871
aa(lp2122
I3395
aI150
aa(lp2123
I1376
aI4907
aI3433
aa(lp2124
I4330
aI2880
aI2993
aI3876
aa(lp2125
I3786
aa(lp2126
I2560
aI5272
aI4739
aI2164
aa(lp2127
I2192
aI3529
aa(lp2128
I2171
aa(lp2129
I3565
aI5078
aI5019
aa(lp2130
I2235
aI1130
aI4210
aa(lp2131
I10
aa(lp2132
I1735
aI1666
aI2936
aI5468
aI5241
aa(lp2133
I2092
aI3189
aI1703
aa(lp2134
I4832
aI4038
aI4009
aI4921
aI4675
aI191
aI3494
aI4396
aI3188
aI1860
aI3118
aI5521
aI2715
aI4891
aI3413
aa(lp2135
I1398
aI604
aa(lp2136
I391
aI2818
aI2350
aI2030
aI3643
aa(lp2137
I735
aI2213
aI471
aa(lp2138
I5310
aI3496
aI4559
aa(lp2139
I4194
aI4696
aI3412
aI3110
aa(lp2140
I4006
aa(lp2141
I2679
aI5395
aI5142
aa(lp2142
I2377
aI4403
aI4483
aa(lp2143
I181
aI3463
aa(lp2144
I1816
aI5391
aI406
aI5148
aa(lp2145
I3730
aI2728
aI1455
aI5364
aa(lp2146
I5414
aI1277
aa(lp2147
I848
aI3631
aa(lp2148
I2983
aI5438
aI3771
aI3905
aI4877
aa(lp2149
I4928
aI1932
aa(lp2150
I3676
aa(lp2151
I3996
aa(lp2152
I4629
aI3711
aI5334
aI3731
aI2404
aa(lp2153
I5212
aI4405
aa(lp2154
I4994
aI1498
aa(lp2155
I2513
aI3820
aI5349
aa(lp2156
I2863
aI4168
aI2638
aa(lp2157
I1686
aa(lp2158
I631
aI1817
aa(lp2159
I286
aI4969
aI2385
aa(lp2160
I3939
aI1911
aI380
aa(lp2161
I6
aI4690
aI1032
aa(lp2162
I2042
aI1665
aa(lp2163
I2432
aI5061
aa(lp2164
I4817
aI4141
aI3173
aa(lp2165
I2496
aI5183
aI645
aa(lp2166
I4796
aa(lp2167
I5036
aI4299
aa(lp2168
I5212
aI227
aI5496
aa(lp2169
I4989
aI3107
aI2307
aa(lp2170
I4532
aa(lp2171
I5299
aI5299
aI1076
aI378
aa(lp2172
I2827
aa(lp2173
I4116
aI2450
aI3313
aa(lp2174
I4373
aa(lp2175
I5092
aI4240
aI756
aa(lp2176
I2223
aa(lp2177
I5512
aI2606
aI53
aI1988
aa(lp2178
I4199
aa(lp2179
I619
aI5158
aa(lp2180
I12
aI4850
aI525
aI4575
aI2849
aI979
aa(lp2181
I3857
aa(lp2182
I1918
aI1776
aI4476
aa(lp2183
I5240
aI1887
aI3324
aI5243
aI1728
aI2401
aa(lp2184
I2098
aa(lp2185
I3812
aI1295
aI1078
aI3076
aa(lp2186
I859
aI75
aI4478
aa(lp2187
I4737
aI5494
aa(lp2188
I3298
aI5201
aI5319
aa(lp2189
I842
aI870
aI453
aa(lp2190
I2600
aI58
aI5121
aI4759
aa(lp2191
I441
aI1808
aI3508
aI2814
aa(lp2192
I2845
aI3604
aa(lp2193
I2577
aa(lp2194
I4770
aI2829
aI2829
aa(lp2195
I5363
aI2048
aI3129
aa(lp2196
I4018
aI55
aI1989
aa(lp2197
I1151
aI209
aa(lp2198
I2330
aI3804
aI1900
aI1486
aa(lp2199
I4329
aI4107
aI550
aI1581
aa(lp2200
I3910
aI57
aa(lp2201
I1922
aI1670
aa(lp2202
I5276
aI4462
aI994
aI5513
aa(lp2203
I3916
aI2387
aI4101
aI836
aa(lp2204
I730
aI984
aa(lp2205
I824
aI56
aI4926
aI3768
aI1835
aI5282
aI831
aI5031
aI5003
aa(lp2206
I4976
aI4976
aa(lp2207
I88
aI702
aI3700
aI5088
aa(lp2208
I3257
aI1887
aI2878
aa(lp2209
I394
aI2806
aI3080
aa(lp2210
I4246
aI4850
aI525
aI2849
aI979
aa(lp2211
I3461
aI205
aa(lp2212
I3939
aI5515
aI1892
aa(lp2213
I824
aa(lp2214
I4430
aI2155
aa(lp2215
I3997
aa(lp2216
I4384
aI4666
aI3476
aa(lp2217
I5029
aI3182
aI2179
aa(lp2218
I3888
aI3526
aI390
aI3407
aa(lp2219
I1547
aI2860
aI3309
aI5364
aa(lp2220
I3933
aa(lp2221
I4206
aI3623
aa(lp2222
I1288
aI2722
aa(lp2223
I5123
aI3690
aa(lp2224
I4152
aI2523
aI5363
aa(lp2225
I2237
aI505
aI3493
aI4212
aa(lp2226
I2808
aI2345
aI676
aa(lp2227
I236
aI522
aI3582
aI3197
aI5014
aI1014
aI4565
aa(lp2228
I5514
aI2570
aI4145
aa(lp2229
I479
aI1914
aI579
aI3286
aI1640
aI1780
aI2489
aa(lp2230
I4147
aa(lp2231
I5114
aa(lp2232
I4979
aa(lp2233
I5381
aa(lp2234
I90
aI1937
aa(lp2235
I4303
aI228
aa(lp2236
I523
aa(lp2237
I3284
aI4876
aa(lp2238
I1876
aI2380
aa(lp2239
I4280
aI3200
aI750
aa(lp2240
I2661
aI78
aI3656
aa(lp2241
I3363
aI3003
aI2573
aI41
aa(lp2242
I662
aI365
aI3509
aI2389
aI3782
aa(lp2243
I1765
aI577
aa(lp2244
I5539
aI616
aI2900
aa(lp2245
I2995
aI1926
aI854
aI4345
aI5000
aa(lp2246
I3626
aI3529
aa(lp2247
I312
aI3174
aI374
aI4544
aI1635
aI4898
aI399
aa(lp2248
I1816
aI406
aI1669
aI5407
aa(lp2249
I4312
aI360
aI4718
aa(lp2250
I4027
aI988
aI3068
aI1480
aI660
aa(lp2251
I789
aI2039
aI5529
aI601
aa(lp2252
I5434
aI1881
aI2869
aa(lp2253
I1439
aa(lp2254
I115
aI4487
aa(lp2255
I1812
aI1795
aI2590
aa(lp2256
I4699
aI5024
aI1479
aI2622
aI1948
aI5049
aI2048
aa(lp2257
I295
aI3806
aI4886
aa(lp2258
I509
aI3680
aI1033
aI1257
aI4022
aI584
aI3410
aI709
aI1521
aI2335
aI3712
aI3445
aa(lp2259
I266
aI2019
aI1180
aI1919
aa(lp2260
I1200
aa(lp2261
I4642
aI1509
aa(lp2262
I850
aI1056
aa(lp2263
I3367
aI3367
aa(lp2264
I2897
aI291
aI4089
aa(lp2265
I4536
aI785
aI179
aI852
aa(lp2266
I2429
aI2613
aI1049
aa(lp2267
I613
aI3351
aI1217
aa(lp2268
I2431
aa(lp2269
I1478
aI4091
aa(lp2270
I2797
aI1344
aI1244
aa(lp2271
I73
aa(lp2272
I2624
aI1614
aI2376
aI4082
aa(lp2273
I1648
aa(lp2274
I5313
aI1905
aa(lp2275
I1044
aa(lp2276
I29
aa(lp2277
I3234
aI4301
aa(lp2278
I4769
aa(lp2279
I5464
aI3163
aa(lp2280
I747
aa(lp2281
I445
aa(lp2282
I2292
aI3175
aI3381
aI4415
aI4491
aI1623
aI2457
aI4040
aa(lp2283
I61
aI383
aI4801
aa(lp2284
I2481
aI907
aI3605
aI1786
aI620
aI4258
aI4422
aI3855
aa(lp2285
I4053
aI5222
aa(lp2286
I5049
aI2622
aI1948
aa(lp2287
I4713
aa(lp2288
I1818
aI1371
aI3326
aI1492
aa(lp2289
I1856
aI2451
aI5168
aI519
aa(lp2290
I847
aI3462
aa(lp2291
I4888
aI698
aI249
aI3977
aa(lp2292
I2649
aI2808
aI4995
aI1571
aa(lp2293
I3702
aa(lp2294
I2578
aI3761
aI3827
aa(lp2295
I2761
aI3427
aa(lp2296
I1241
aI2032
aa(lp2297
I1877
aa(lp2298
I254
aI5093
aI609
aa(lp2299
I3122
aI936
aI517
aa(lp2300
I2933
aI456
aI5472
aI2221
aI1183
aa(lp2301
I2311
aI4471
aI1909
aa(lp2302
I1722
aI4135
aI5268
aI250
aa(lp2303
I5254
aI3065
aa(lp2304
I2214
aI104
aI801
aI2652
aI4547
aI2935
aa(lp2305
I5210
aI3595
aI1610
aI3645
aa(lp2306
I804
aI1696
aI3604
aa(lp2307
I4397
aI4142
aa(lp2308
I2513
aI4469
aI3820
aI5066
aI2258
aI2258
aI5349
aI2913
aa(lp2309
I1249
aI4634
aa(lp2310
I2541
aa(lp2311
I5352
aI2126
aI2983
aa(lp2312
I5337
aI4494
aI1263
aa(lp2313
I3763
aa(lp2314
I4767
aI1122
aa(lp2315
I820
aI2750
aa(lp2316
I3882
aa(lp2317
I460
aI3600
aa(lp2318
I2210
aI4155
aa(lp2319
I3392
aI4568
aa(lp2320
I1857
aa(lp2321
I2754
aI4907
aa(lp2322
I3004
aI2994
aI1830
aa(lp2323
I824
aI2778
aI56
aI3768
aa(lp2324
I358
aI4261
aI5281
aI922
aa(lp2325
I5325
aI1038
aI2879
aI3008
aa(lp2326
I454
aI1097
aI1593
aI3279
aI2191
aI745
aa(lp2327
I6
aI4690
aa(lp2328
I3704
aI4834
aI1326
aI867
aa(lp2329
I3581
aI1567
aa(lp2330
I1445
aI1445
aI4863
aI4863
aa(lp2331
I1463
aI5367
aI4227
aI4700
aI2063
aI1309
aI5226
aa(lp2332
I3172
aa(lp2333
I3231
aI3043
aI794
aa(lp2334
I3287
aI5169
aa(lp2335
I5175
aI2156
aI1380
aI185
aI3674
aI2138
aI4472
aa(lp2336
I838
aI4725
aa(lp2337
I3045
aI2568
aa(lp2338
I137
aI3065
aa(lp2339
I1399
aI2623
aa(lp2340
I5138
aI656
aI1681
aI77
aI3096
aa(lp2341
I54
aI5316
aa(lp2342
I1437
aI4578
aI3081
aa(lp2343
I384
aa(lp2344
I4378
aI5474
aI5110
aI5110
aa(lp2345
I133
aI5083
aI84
aa(lp2346
I2311
aI4917
aI4471
aI899
aI1909
aa(lp2347
I5345
aI612
aI4217
aa(lp2348
I4323
aI180
aI4084
aI3663
aa(lp2349
I965
aI4612
aI1639
aI4301
aa(lp2350
I1476
aI3397
aa(lp2351
I952
aI2038
aI5534
aI5447
aI4677
aa(lp2352
I1560
aI4587
aa(lp2353
I5185
aI3749
aI2810
aa(lp2354
I4052
aI2229
aI539
aa(lp2355
I671
aa(lp2356
I122
aI2293
aa(lp2357
I1453
aa(lp2358
I1570
aI1319
aI5424
aa(lp2359
I2206
aI873
aa(lp2360
I3683
aI3914
aI657
aI3619
aa(lp2361
I3629
aI1120
aa(lp2362
I960
aa(lp2363
I3137
aI4028
aI5254
aI3065
aa(lp2364
I2926
aI5008
aI4946
aI308
aI1579
aI1356
aI5396
aI4284
aa(lp2365
I3328
aI572
aI4586
aI3143
aa(lp2366
I1558
aI3229
aI3553
aa(lp2367
I1200
aa(lp2368
I116
aI3660
aI4797
aa(lp2369
I5127
aI1087
aa(lp2370
I5482
aI4476
aa(lp2371
I5281
aa(lp2372
I424
aI4667
aa(lp2373
I2091
aI89
aa(lp2374
I1774
aI2835
aI5292
aI3552
aI5409
aI94
aa(lp2375
I771
aa(lp2376
I257
aI365
aI2980
aI5399
aa(lp2377
I1829
aI1657
aI1396
aa(lp2378
I1766
aa(lp2379
I2119
aa(lp2380
I1025
aa(lp2381
I2166
aI442
aI4167
aI2531
aa(lp2382
I4994
aI1498
aa(lp2383
I2213
aI483
aa(lp2384
I1208
aI4185
aI1208
aa(lp2385
I1859
aI1506
aa(lp2386
I5543
aI1021
aI1681
aI2059
aa(lp2387
I2599
aI4067
aI5369
aI414
aa(lp2388
I689
aI3990
aI2883
aa(lp2389
I4017
aI233
aI3546
aI2441
aa(lp2390
I4152
aI1004
aI2523
aI328
aa(lp2391
I4463
aI2767
aa(lp2392
I4976
aI4720
aI5075
aI3580
aI3627
aa(lp2393
I3212
aI3755
aI1758
aa(lp2394
I220
aI271
aI5408
aa(lp2395
I4626
aa(lp2396
I4212
aI3028
aI214
aI1612
aa(lp2397
I2355
aI2635
aI4007
aa(lp2398
I3967
aI193
aI2507
aa(lp2399
I2112
aa(lp2400
I5266
aI4124
aI3693
aa(lp2401
I1510
aa(lp2402
I2322
aa(lp2403
I1975
aI728
aa(lp2404
I3785
aI1964
aI449
aI4961
aI878
aI5344
aa(lp2405
I2994
aa(lp2406
I504
aI1652
aI2167
aI2751
aI2826
aa(lp2407
I3206
aI2387
aI1395
aa(lp2408
I339
aI3394
aI1957
aI5429
aa(lp2409
I2644
aI5262
aa(lp2410
I1115
aI937
aI1043
aI1002
aI5445
aa(lp2411
I4241
aI2412
aI302
aa(lp2412
I2053
aI3346
aa(lp2413
I4053
aI5222
aI3543
aa(lp2414
I3129
aI1088
aI3083
aI5049
aI1149
aa(lp2415
I2463
aI4240
aI2581
aa(lp2416
I1196
aI3353
aa(lp2417
I907
aI3605
aI2656
aI2898
aI3855
aa(lp2418
I613
aI3506
aI768
aa(lp2419
I5482
aI4640
aI3831
aI1869
aa(lp2420
I5500
aa(lp2421
I2046
aI4432
aa(lp2422
I2034
aI4357
aI3085
aa(lp2423
I3179
aI33
aI5413
aI3196
aa(lp2424
I987
aI5214
aa(lp2425
I3725
aI4024
aa(lp2426
I4373
aI629
aa(lp2427
I1646
aI3360
aI1927
aI3636
aI2611
aa(lp2428
I2364
aI4663
aI2518
aI3421
aI2669
aI5079
aa(lp2429
I1886
aa(lp2430
I925
aI141
aa(lp2431
I4638
aa(lp2432
I4683
aI350
aa(lp2433
I1567
aa(lp2434
I5381
aa(lp2435
I3269
aI3269
aI4909
aI4909
aa(lp2436
I2754
aI2673
aI4907
aa(lp2437
I5375
aI1696
aI3604
aa(lp2438
I119
aI4594
aI624
aI2802
aa(lp2439
I4702
aI4300
aI3202
aa(lp2440
I4630
aI2972
aa(lp2441
I5379
aI4476
aa(lp2442
I4736
aI5489
aI1443
aI1034
aa(lp2443
I4601
aI701
aa(lp2444
I5212
aI4405
aI2423
aa(lp2445
I5353
aI3016
aI1708
aI4076
aI4858
aa(lp2446
I2406
aI2905
aa(lp2447
I1619
aI1791
aI3898
aI4574
aI2663
aI3969
aI3597
aI4500
aI3741
aa(lp2448
I4127
aI3372
aI2791
aI2555
aI763
aI4546
aI1630
aI4447
aI3975
aa(lp2449
I104
aI2652
aI2935
aa(lp2450
I4933
aa(lp2451
I2679
aI5395
aa(lp2452
I4423
aa(lp2453
I3142
aI552
aI2084
aa(lp2454
I5210
aI3595
aI1610
aI3645
aa(lp2455
I1615
aI5207
aI4477
aa(lp2456
I2161
aI3657
aI1602
aa(lp2457
I5323
aI4655
aa(lp2458
I3746
aI1519
aI2326
aI1513
aI4717
aa(lp2459
I3741
aI5487
aa(lp2460
I3607
aI1759
aI2310
aa(lp2461
I2150
aI1991
aI55
aI3651
aI1989
aI4197
aI5278
aI4648
aI2657
aI2188
aI5426
aI4678
aa(lp2462
I3440
aa(lp2463
I4508
aI1349
aI2175
aI1872
aI4884
aa(lp2464
I749
aa(lp2465
I1075
aI1248
aa(lp2466
I523
aI1197
aa(lp2467
I4774
aI4264
aI1556
aa(lp2468
I4099
aI685
aI3520
aI2122
aI1582
aa(lp2469
I1647
aI4973
aa(lp2470
I3109
aI1531
aI4968
aI1313
aa(lp2471
I2946
aI3949
aI814
aa(lp2472
I1177
aI2693
aI761
aI1092
aI5036
aI4600
aI1360
aa(lp2473
I2069
aI4142
aa(lp2474
I4942
aI3485
aI3447
aI4347
aI4771
aI310
aa(lp2475
I5246
aa(lp2476
I1618
aI5343
aI3571
aa(lp2477
I4611
aI1225
aa(lp2478
I625
aI298
aI1262
aa(lp2479
I3936
aI3760
aI4204
aa(lp2480
I3366
aa(lp2481
I3708
aI695
aI2972
aa(lp2482
I3157
aI2031
aI5286
aI1221
aa(lp2483
I187
aI3560
aI5256
aI3902
aa(lp2484
I3021
aI4757
aI5467
aI4192
aa(lp2485
I3910
aa(lp2486
I573
aI1718
aa(lp2487
I2201
aI5148
aa(lp2488
I5263
aI3415
aI4377
aI2105
aa(lp2489
I2024
aI2903
aa(lp2490
I4209
aI2486
aI5137
aI4577
aa(lp2491
I2759
aI3901
aI5215
aa(lp2492
I5366
aI2476
aa(lp2493
I297
aI907
aI3605
aI3855
aI2481
aa(lp2494
I2645
aa(lp2495
I2546
aI904
aa(lp2496
I1881
aI5434
aI2869
aa(lp2497
I2600
aI858
aI3320
aI5121
aa(lp2498
I2966
aI4576
aa(lp2499
I4660
aI3952
aa(lp2500
I3204
aI762
aa(lp2501
I2045
aI2196
aa(lp2502
I610
aI5361
aI1404
aI5341
aa(lp2503
I5466
aI4332
aa(lp2504
I2213
aI155
aa(lp2505
I1647
aI2677
aa(lp2506
I3323
aI4098
aa(lp2507
I661
aI5238
aI4904
aI1201
aa(lp2508
I2466
aI3449
aa(lp2509
I4385
aI4969
aa(lp2510
I1769
aI1698
aI3759
aa(lp2511
I5047
aI1827
aI2398
aI924
aI1743
aI3533
aI4143
aI4421
aI3262
aI1274
aa(lp2512
I2349
aa(lp2513
I5127
aI1087
aa(lp2514
I1238
aI3668
aI3691
aa(lp2515
I4612
aI1581
aa(lp2516
I4971
aI1165
aI2983
aa(lp2517
I617
aI150
aa(lp2518
I262
aI3468
aa(lp2519
I389
aI4688
aI700
aa(lp2520
I3819
aI3124
aa(lp2521
I3511
aI3331
aI3374
aI1737
aI950
aa(lp2522
I1451
aI5223
aI4674
aI378
aa(lp2523
I1079
aa(lp2524
I3755
aa(lp2525
I4975
aI1503
aa(lp2526
I573
aI2029
aI1718
aa(lp2527
I2981
aI280
aI3728
aa(lp2528
I4134
aI5465
aI3974
aI926
aa(lp2529
I409
aa(lp2530
I320
aI2671
aI5433
aI5433
aI729
aI729
aa(lp2531
I3457
aI4176
aI1516
aa(lp2532
I1043
aI5445
aa(lp2533
I118
aI5436
aa(lp2534
I1489
aI68
aa(lp2535
I3489
aI3444
aa(lp2536
I3060
aI2733
aI4407
aI3031
aa(lp2537
I4811
aI5345
aa(lp2538
I3087
aI4656
aI4266
aa(lp2539
I4947
aI2248
aa(lp2540
I958
aa(lp2541
I2450
aI4639
aa(lp2542
I369
aa(lp2543
I1397
aI648
aa(lp2544
I3480
aI1785
aI1271
aI60
aa(lp2545
I4220
aI1206
aI1379
aa(lp2546
I4601
aI5140
aa(lp2547
I2313
aI4268
aa(lp2548
I168
aI4482
aI3903
aI1400
aI1048
aI1973
aa(lp2549
I2679
aI5395
aI5142
aa(lp2550
I3882
aa(lp2551
I3793
aI1504
aI3094
aI962
aI1599
aa(lp2552
I3840
aI4273
aa(lp2553
I5275
aI535
aa(lp2554
I4000
aI2831
aI4215
aI718
aI5418
aa(lp2555
I1020
aI2340
aI1987
aI4540
aa(lp2556
I1450
aI1335
aI3229
aI2297
aI2833
aI3217
aa(lp2557
I2112
aI1850
aa(lp2558
I3263
aI4218
aa(lp2559
I3885
aI4332
aa(lp2560
I291
aI2897
aI4089
aa(lp2561
I2866
aI4754
aa(lp2562
I2749
aI2069
aa(lp2563
I2974
aI5259
aI3482
aa(lp2564
I4833
aI3579
aI5010
aa(lp2565
I3299
aI2622
aa(lp2566
I1776
aI1681
aI2059
aa(lp2567
I4512
aa(lp2568
I242
aI298
aI3090
aa(lp2569
I4701
aI2408
aa(lp2570
I2696
aa(lp2571
I2435
aI4475
aa(lp2572
I2884
aa(lp2573
I2880
aI4716
aI5271
aI175
aa(lp2574
I2397
aI2397
aa(lp2575
I1227
aI932
aI2621
aI5059
aa(lp2576
I112
aI5041
aI1403
aI5071
aa(lp2577
I4063
aI3570
aI2301
aa(lp2578
I2062
aI1719
aa(lp2579
I1013
aI1846
aa(lp2580
I2453
aI4019
aI2453
aa(lp2581
I2630
aI455
aa(lp2582
I4000
aI4977
aI1467
aI636
aI2858
aa(lp2583
I488
aI912
aa(lp2584
I383
aI4579
aI2170
aa(lp2585
I5157
aI5254
aI3065
aa(lp2586
I3029
aI1161
aa(lp2587
I2299
aI997
aa(lp2588
I1497
aI2731
aI2037
aI485
aa(lp2589
I5450
aI4138
aI248
aa(lp2590
I194
aI4476
aa(lp2591
I1982
aa(lp2592
I4828
aI3213
aa(lp2593
I1829
aI2362
aI1396
aI2804
aa(lp2594
I4671
aI1452
aa(lp2595
I3430
aI4953
aI1096
aI5351
aa(lp2596
I890
aI2224
aI5254
aI4693
aI4358
aI3065
aI582
aa(lp2597
I116
aI3660
aI4797
aa(lp2598
I2853
aI4893
aI2216
aa(lp2599
I2184
aI5163
aI2962
aI1056
aI3055
aI222
aa(lp2600
I461
aI560
aI1139
aa(lp2601
I2829
aa(lp2602
I5506
aI1639
aa(lp2603
I1916
aI4259
aI2348
aa(lp2604
I2140
aI3360
aa(lp2605
I3152
aI2719
aI3958
aa(lp2606
I575
aI90
aI4346
aa(lp2607
I4691
aa(lp2608
I427
aI3883
aI1010
aI647
aI1391
aa(lp2609
I3350
aa(lp2610
I4379
aI5251
aa(lp2611
I5130
aI1960
aI777
aa(lp2612
I3891
aI1825
aI3747
aa(lp2613
I3840
aI4273
aI2514
aa(lp2614
I5437
aI1193
aI683
aa(lp2615
I2994
aa(lp2616
I4459
aI3584
aa(lp2617
I1889
aI1740
aI3952
aI431
aa(lp2618
I4249
aI4189
aI1792
aa(lp2619
I4988
aI4260
aI2227
aa(lp2620
I4063
aI3570
aI2301
aa(lp2621
I723
aI3281
aa(lp2622
I1012
aI1747
aa(lp2623
I3141
aI1366
aI334
aI2154
aa(lp2624
I2588
aI1042
aa(lp2625
I3794
aI5102
aI5136
aI2385
aI4476
aa(lp2626
I1940
aI2787
aa(lp2627
I4012
aI734
aa(lp2628
I1929
aI1502
aI2982
aa(lp2629
I193
aI1972
aa(lp2630
I2466
aI27
aI3449
aI3379
aa(lp2631
I892
aI3877
aI337
aa(lp2632
I2704
aa(lp2633
I5390
aI4505
aI4348
aa(lp2634
I1111
aa(lp2635
I3939
aI2515
aI1911
aa(lp2636
I5037
aI3836
aa(lp2637
I4838
aI5530
aa(lp2638
I551
aI1428
aI1764
aI5332
aI52
aa(lp2639
I401
aI1368
aI2180
aa(lp2640
I1648
aI4487
aa(lp2641
I1923
aI5089
aI1337
aa(lp2642
I1469
aa(lp2643
I4528
aI43
aI1933
aa(lp2644
I2321
aI3792
aa(lp2645
I1094
aa(lp2646
I3344
aI1199
aI3837
aa(lp2647
I2838
aa(lp2648
I7
aI876
aI3330
aI4709
aa(lp2649
I4570
aa(lp2650
I693
aI2805
aI839
aa(lp2651
I4758
aI0
aI1129
aa(lp2652
I1093
aI430
aI955
aI819
aI1316
aa(lp2653
I1996
aI4230
aI523
aa(lp2654
I5386
aI1216
aa(lp2655
I4171
aI28
aa(lp2656
I128
aI2032
aa(lp2657
I4042
aI4798
aa(lp2658
I1855
aa(lp2659
I1148
aI812
aI2357
aI1501
aI1152
aa(lp2660
I551
aI5095
aa(lp2661
I860
aI5329
aI111
aa(lp2662
I3414
aI478
aa(lp2663
I2643
aI4943
aI3818
aI5291
aI2316
aI4318
aI2360
aI2939
aI2753
aa(lp2664
I4314
aI311
aa(lp2665
I1977
aI481
aI3240
aI2692
aa(lp2666
I2504
aI5520
aI3992
aI2198
aI79
aI3963
aI3036
aI585
aI218
aI2516
aI1260
aI4867
aI5518
aI132
aI3099
aa(lp2667
I779
aI5515
aI1553
aa(lp2668
I369
aI3592
aa(lp2669
I3847
aa(lp2670
I5011
aa(lp2671
I4265
aI4470
aI303
aa(lp2672
I3306
aI3005
aI5077
aI2549
aa(lp2673
I215
aa(lp2674
I1683
aI5360
aI4444
aa(lp2675
I728
aI4603
aa(lp2676
I2314
aI948
aI3624
aI1681
aa(lp2677
I615
aI3105
aI2642
aI2603
aI1838
aa(lp2678
I4431
aI5314
aI220
aI1071
aI271
aI5408
aI2158
aI2937
aa(lp2679
I361
aI4128
aI3159
aa(lp2680
I3720
aI1828
aa(lp2681
I2230
aa(lp2682
I3283
aI1374
aa(lp2683
I1696
aI804
aI3604
aa(lp2684
I1423
aI916
aI1884
aa(lp2685
I602
aI5431
aa(lp2686
I4669
aI3604
aa(lp2687
I4418
aa(lp2688
I4684
aI144
aa(lp2689
I4379
aI5251
aa(lp2690
I4728
aI1080
aI538
aa(lp2691
I4735
aI3887
aI2211
aI477
aI4711
aa(lp2692
I4321
aa(lp2693
I4150
aI1081
aa(lp2694
I3714
aI3825
aI2506
aI1644
aI1907
aI3671
aI1268
aa(lp2695
I5454
aI4739
aa(lp2696
I2325
aI395
aI2172
aI3327
aI2582
aa(lp2697
I4899
aI4805
aa(lp2698
I1227
aa(lp2699
I694
aa(lp2700
I1385
aI5289
aI3177
aI4931
aI3424
aa(lp2701
I3460
aI510
aI2741
aa(lp2702
I3661
aa(lp2703
I697
aI4907
aa(lp2704
I4607
aa(lp2705
I1645
aa(lp2706
I946
aI4520
aI1573
aa(lp2707
I1031
aI315
aI3904
aI1896
aa(lp2708
I199
aI4041
aI1714
aI3163
aa(lp2709
I1145
aa(lp2710
I211
aI1659
aI800
aI5146
aI1557
aI3503
aI1153
aa(lp2711
I2689
aI570
aa(lp2712
I4571
aa(lp2713
I1756
aI1756
aI1756
aa(lp2714
I2148
aa(lp2715
I977
aa(lp2716
I4147
aa(lp2717
I3544
aa(lp2718
I5318
aI3456
aa(lp2719
I4502
aI4502
aI3453
aI4112
aI1803
aa(lp2720
I2395
aI180
aa(lp2721
I4667
aI237
aa(lp2722
I544
aI3318
aI4705
aa(lp2723
I4810
aI4910
aI4123
aa(lp2724
I3726
aI5505
aI3806
aa(lp2725
I3676
aI3760
aI4204
aa(lp2726
I3648
aI4476
aa(lp2727
I3528
aI1109
aI817
aI4256
aI1649
aa(lp2728
I5272
aI727
aI4414
aa(lp2729
I2062
aa(lp2730
I2517
aI2220
aI4153
aI2758
aI959
aa(lp2731
I1059
aI1661
aI4180
aI976
aI2132
aa(lp2732
I1220
aI421
aI4025
aa(lp2733
I2133
aI3907
aa(lp2734
I1947
aI5073
aI2864
aa(lp2735
I2946
aI4196
aI4725
aa(lp2736
I184
aI4681
aa(lp2737
I3755
aa(lp2738
I1891
aa(lp2739
I2047
aI4170
aa(lp2740
I2762
aa(lp2741
I3256
aI4320
aI716
aI4567
aI3340
aI4267
aa(lp2742
I356
aI4014
aa(lp2743
I2253
aI3902
aa(lp2744
I2387
aa(lp2745
I4657
aI150
aa(lp2746
I4636
aI4649
aI3527
aa(lp2747
I3807
aI721
aa(lp2748
I1535
aa(lp2749
I4732
aI2190
aa(lp2750
I126
aI2032
aa(lp2751
I4816
aI5238
aI4904
aI1201
aa(lp2752
I2320
aI5209
aa(lp2753
I3641
aI4623
aI5435
aI5511
aa(lp2754
I930
aI1503
aI135
aa(lp2755
I5375
aI1696
aI4287
aa(lp2756
I2975
aI1282
aI546
aI546
aa(lp2757
I5538
aa(lp2758
I842
aI1834
aa(lp2759
I881
aI1301
aI3492
aa(lp2760
I942
aI523
aa(lp2761
I2893
aa(lp2762
I1748
aI1198
aI5397
aI1167
aa(lp2763
I4177
aI2182
aI2917
aa(lp2764
I3302
aI3346
aI4573
aI795
aI1133
aI1495
aI4064
aI4549
aI3640
aI5290
aI376
aI3277
aa(lp2765
I2295
aI3487
aI379
aa(lp2766
I36
aI3865
aI3402
aI3402
aa(lp2767
I3755
aI2164
aa(lp2768
I2272
aI1158
aa(lp2769
I5173
aa(lp2770
I384
aa(lp2771
I2111
aI1369
aa(lp2772
I848
aI3631
aa(lp2773
I412
aI746
aI3860
aI4839
aa(lp2774
I5136
aI5102
aI3794
aI2385
aI4243
aa(lp2775
I1732
aa(lp2776
I3939
aI2957
aI2547
aI3011
aa(lp2777
I5254
aI3065
aI165
aa(lp2778
I454
aI3989
aI3586
aa(lp2779
I3897
aI4612
aI4569
aI4301
aa(lp2780
I2596
aI2179
aa(lp2781
I4731
aI3467
aa(lp2782
I363
aI352
aI1174
aa(lp2783
I5381
aa(lp2784
I3888
aI4008
aI1202
aI3407
aI2839
aI3180
aI880
aI2629
aa(lp2785
I1133
aI5133
aI1495
aI5156
aI3873
aI3362
aI4160
aa(lp2786
I4229
aI4448
aI2460
aI1137
aI4661
aI5383
aI2134
aI4010
aI3599
aa(lp2787
I2608
aa(lp2788
I5065
aI2948
aI3789
aa(lp2789
I3690
aa(lp2790
I1103
aI2318
aI5189
aI2764
aI5144
aI4924
aa(lp2791
I2197
aI3829
aa(lp2792
I264
aI1879
aI2798
aI2718
aa(lp2793
I2804
aa(lp2794
I5264
aI879
aa(lp2795
I5371
aI4591
aI4591
aI3589
aI3589
aa(lp2796
I3232
aI2857
aa(lp2797
I1675
aI2585
aa(lp2798
I5381
aa(lp2799
I2878
aI1887
aI559
aa(lp2800
I4600
aI3854
aa(lp2801
I4186
aI3755
aI1758
aa(lp2802
I3539
aI3017
aI1590
aa(lp2803
I3860
aI4077
aI5339
aI435
aI2
aI2998
aI5287
aI2361
aI3884
aa(lp2804
I1396
aI2435
aa(lp2805
I3025
aI1946
aI3160
aa(lp2806
I5136
aI4073
aI1254
aI3767
aa(lp2807
I4916
aa(lp2808
I2640
aI4581
aI1951
aa(lp2809
I4069
aI3327
aI4745
aI1819
aI2325
aI2325
aa(lp2810
I523
aa(lp2811
I4042
aI4798
aI2505
aI1814
aI1744
aI1054
aa(lp2812
I3107
aI3250
aI4989
aI2307
aa(lp2813
I3729
aI3798
aa(lp2814
I2629
aI1141
aI3407
aa(lp2815
I923
aI872
aI3987
aI2001
aa(lp2816
I2164
aa(lp2817
I3408
aI3159
aa(lp2818
I2213
aI155
aa(lp2819
I3775
aI2455
aI5304
aI618
aI444
aI2678
aa(lp2820
I2920
aI4751
aI4612
aI4569
aI4301
aa(lp2821
I5084
aI3015
aI3301
aI3593
aa(lp2822
I1060
aI4097
aI687
aI1135
aa(lp2823
I501
aI2454
aI1136
aI1063
aa(lp2824
I3945
aI1323
aa(lp2825
I2041
aI413
aa(lp2826
I5370
aI5449
aa(lp2827
I1558
aI3229
aI3553
aa(lp2828
I2219
aI3790
aI1237
aI736
aI5388
aa(lp2829
I3933
aa(lp2830
I3390
aa(lp2831
I4822
aI5055
aI5302
aI1730
aI1800
aa(lp2832
I4142
aI2069
aI4397
aa(lp2833
I4424
aI2832
aI2605
aI1412
aa(lp2834
I467
aI3449
aI2591
aa(lp2835
I4850
aI525
aI4246
aI979
aa(lp2836
I904
aa(lp2837
I2477
aI4692
aI318
aI2056
aa(lp2838
I4746
aI5412
aa(lp2839
I4420
aI2017
aI570
aa(lp2840
I1242
aI4526
aI3400
aI4548
aa(lp2841
I986
aI1718
aI3163
aa(lp2842
I3709
aI2992
aa(lp2843
I4925
aI1341
aI1549
aa(lp2844
I370
aI4151
aI3071
aI3610
aI2167
aa(lp2845
I1881
aI2869
aa(lp2846
I328
aI4699
aI3983
aI1948
aI5363
aa(lp2847
I3023
aI2275
aa(lp2848
I901
aa(lp2849
I3980
aI1484
aI189
aa(lp2850
I4569
aa(lp2851
I748
aI413
aI4435
aa(lp2852
I504
aI1652
aI2751
aa(lp2853
I1258
aI2436
aI2575
aI307
aa(lp2854
I3331
aI1734
aI3780
aI3374
aa(lp2855
I1758
aI2551
aa(lp2856
I739
aI3397
aa(lp2857
I4863
aa(lp2858
I3130
aI5222
aI4053
aa(lp2859
I2533
aa(lp2860
I688
aa(lp2861
I3878
aa(lp2862
I5015
aI5508
aa(lp2863
I1252
aI2070
aI3399
aa(lp2864
I823
aI4054
aI4269
aI4293
aI4580
aa(lp2865
I4914
aI3275
aI3849
aI5174
aI3664
aI2745
aI3535
aI5072
aa(lp2866
I2493
aI4114
aI236
aa(lp2867
I5193
aI2737
aI766
aa(lp2868
I5285
aI4120
aI2902
aa(lp2869
I75
aI4478
aa(lp2870
I1307
aI3093
aI4518
aI1232
aI4794
aa(lp2871
I595
aa(lp2872
I1905
aI5313
aa(lp2873
I5381
aa(lp2874
I5190
aI2574
aa(lp2875
I2967
aI4353
aa(lp2876
I3642
aI3540
aa(lp2877
I2545
aI5254
aI4820
aa.