(dp1
I0
S'critchlow98metadata'
p2
sI1
S'kalganova99evolving'
p3
sI2
S'szymkowiak01hierarchical'
p4
sI3
S'526346'
p5
sI4
S'shkapenyuk01design'
p6
sI5
S'agrawal00athena'
p7
sI6
S'sanchez98agora'
p8
sI7
S'533620'
p9
sI8
S'basili00language'
p10
sI9
S'koster99normalization'
p11
sI10
S'284454'
p12
sI11
S'kinny97modelling'
p13
sI12
S'452308'
p14
sI13
S'andersen00what'
p15
sI14
S'omer00javacorba'
p16
sI15
S'rahwan00virtual'
p17
sI16
S'markatos99caching'
p18
sI17
S'weiss99achieving'
p19
sI18
S'bonchi01web'
p20
sI19
S'werger00ayllu'
p21
sI20
S'bonnet00query'
p22
sI21
S'sullivan98tribeca'
p23
sI22
S'335912'
p24
sI23
S'nodine99active'
p25
sI24
S'32521'
p26
sI25
S'griffiths01query'
p27
sI26
S'spoelder00man'
p28
sI27
S'craswell01effective'
p29
sI28
S'chen00algebraic'
p30
sI29
S'56231'
p31
sI30
S'coellocoello99treating'
p32
sI31
S'martelli99specification'
p33
sI32
S'311175'
p34
sI33
S'matthews00fuzzy'
p35
sI34
S'56124'
p36
sI35
S'253088'
p37
sI36
S'sun01individual'
p38
sI37
S'279508'
p39
sI38
S'51607'
p40
sI39
S'cadoli98survey'
p41
sI40
S'muslea00selective'
p42
sI41
S'60136'
p43
sI42
S'ianni01intelligent'
p44
sI43
S'marques02componentbased'
p45
sI44
S'424127'
p46
sI45
S'cui99practical'
p47
sI46
S'schein01generative'
p48
sI47
S'528932'
p49
sI48
S'laviola99wholehand'
p50
sI49
S'414073'
p51
sI50
S'amer-yahia00boundingschemas'
p52
sI51
S'holden97visual'
p53
sI52
S'kaburlasos00learning'
p54
sI53
S'cachin99computationally'
p55
sI54
S'amato98obprm'
p56
sI55
S'yang99mixtures'
p57
sI56
S'arampatzis00evaluation'
p58
sI57
S'fernyhough99constructing'
p59
sI58
S'zaki00sequence'
p60
sI59
S'heidemann01building'
p61
sI60
S'453999'
p62
sI61
S'joslyn99levels'
p63
sI62
S'widom00wsqdsq'
p64
sI63
S'cassell99fully'
p65
sI64
S'arlein99making'
p66
sI65
S'moreno95alisis'
p67
sI66
S'chakrabarti02accelerated'
p68
sI67
S'507172'
p69
sI68
S'458790'
p70
sI69
S'lawrence98searching'
p71
sI70
S'sachdev98exploration'
p72
sI71
S'328087'
p73
sI72
S'erwig00querybytrace'
p74
sI73
S'baek01cost'
p75
sI74
S'amin02towards'
p76
sI75
S'slonim01power'
p77
sI76
S'517801'
p78
sI77
S'wijsen99temporal'
p79
sI78
S'509713'
p80
sI79
S'loyer99computing'
p81
sI80
S'74239'
p82
sI81
S'sastry01efficient'
p83
sI82
S'sattler01data'
p84
sI83
S'staab00from'
p85
sI84
S'538013'
p86
sI85
S'tova99active'
p87
sI86
S'callan99automatic'
p88
sI87
S'orr00smart'
p89
sI88
S'laaksonen99picsom'
p90
sI89
S'racine97maintaining'
p91
sI90
S'klein91supporting'
p92
sI91
S'11264'
p93
sI92
S'462285'
p94
sI93
S'kriegel00managing'
p95
sI94
S'kuo00web'
p96
sI95
S'534720'
p97
sI96
S'swindells00system'
p98
sI97
S'apte01ai'
p99
sI98
S'18855'
p100
sI99
S'528220'
p101
sI100
S'stader98intelligent'
p102
sI101
S'bruni00algebraic'
p103
sI102
S'306529'
p104
sI103
S'buneman98path'
p105
sI104
S'vasconcelos00bayesian'
p106
sI105
S'cremonini00ruling'
p107
sI106
S'470087'
p108
sI107
S'globig94casebased'
p109
sI108
S'kervrann00level'
p110
sI109
S'sun99hybrid'
p111
sI110
S'356540'
p112
sI111
S'mair99investigation'
p113
sI112
S'294031'
p114
sI113
S'jantke93casebased'
p115
sI114
S'burke01salticus'
p116
sI115
S'radev02probabilistic'
p117
sI116
S'wood00overview'
p118
sI117
S'294039'
p119
sI118
S'bowling02multiagent'
p120
sI119
S'1625'
p121
sI120
S'157013'
p122
sI121
S'mamoulis98integration'
p123
sI122
S'5188'
p124
sI123
S'godbole01document'
p125
sI124
S'guillaume02web'
p126
sI125
S'chen01txnwrap'
p127
sI126
S'538839'
p128
sI127
S'460784'
p129
sI128
S'levene99probabilistic'
p130
sI129
S'tsoumakas01fuzzy'
p131
sI130
S'panzarasa99modeling'
p132
sI131
S'294238'
p133
sI132
S'cardie99guest'
p134
sI133
S'dipasquo98using'
p135
sI134
S'bertino98definition'
p136
sI135
S'532865'
p137
sI136
S'lam00broadcasting'
p138
sI137
S'vandendoel01foleyautomatic'
p139
sI138
S'sullivan99model'
p140
sI139
S'171304'
p141
sI140
S'303350'
p142
sI141
S'allen99control'
p143
sI142
S'schmidt01how'
p144
sI143
S'531713'
p145
sI144
S'157253'
p146
sI145
S'menczer01evaluating'
p147
sI146
S'grundy01developing'
p148
sI147
S'dunlop00development'
p149
sI148
S'bardram97plans'
p150
sI149
S'ferragina98string'
p151
sI150
S'284772'
p152
sI151
S'schweighofer01automatic'
p153
sI152
S'dipietro99experiences'
p154
sI153
S'4251'
p155
sI154
S'kobayashi00information'
p156
sI155
S'kodratoff00comparing'
p157
sI156
S'bharat98improved'
p158
sI157
S'bernstein00panel'
p159
sI158
S'bradley98mathematical'
p160
sI159
S'nambiar01benchmarking'
p161
sI160
S'nrvag98optimizing'
p162
sI161
S'knoblock00accurately'
p163
sI162
S'french99effective'
p164
sI163
S'altamura00transforming'
p165
sI164
S'bongard00legion'
p166
sI165
S'aha97learning'
p167
sI166
S'lauzac01view'
p168
sI167
S'532140'
p169
sI168
S'rehg99visionbased'
p170
sI169
S'horrocks98using'
p171
sI170
S'traum99speech'
p172
sI171
S'coelho00developing'
p173
sI172
S'howell98towards'
p174
sI173
S'lawrence98context'
p175
sI174
S'ali98implementing'
p176
sI175
S'chen00niagaracq'
p177
sI176
S'83728'
p178
sI177
S'340473'
p179
sI178
S'widyantoro99dynamic'
p180
sI179
S'reddy01coordinating'
p181
sI180
S'camerer00ewa'
p182
sI181
S'hupfeld00spatially'
p183
sI182
S'carvalho00genetic'
p184
sI183
S'abecker01decor'
p185
sI184
S'starner98visual'
p186
sI185
S'307133'
p187
sI186
S'schallehn02extensible'
p188
sI187
S'ramakrishna00similarity'
p189
sI188
S'schweighofer01improving'
p190
sI189
S'67963'
p191
sI190
S'273716'
p192
sI191
S'llc00deep'
p193
sI192
S'grimm01systems'
p194
sI193
S'537391'
p195
sI194
S'king98practical'
p196
sI195
S'daelemans97featurerelevance'
p197
sI196
S'dietterich98approximate'
p198
sI197
S'valencia98algebraic'
p199
sI198
S'rui99image'
p200
sI199
S'antoniou98normal'
p201
sI200
S'huget02language'
p202
sI201
S'lopesdeoliveira99framework'
p203
sI202
S'escudero00portability'
p204
sI203
S'vanlaerhoven01realtime'
p205
sI204
S'chen98learningbased'
p206
sI205
S'rosenfeld00two'
p207
sI206
S'claypool01sangam'
p208
sI207
S'mortazavi-asl01discovering'
p209
sI208
S'rowley98rotation'
p210
sI209
S'vasconcelos99probabilistic'
p211
sI210
S'bauer99trias'
p212
sI211
S'28981'
p213
sI212
S'89384'
p214
sI213
S'147375'
p215
sI214
S'382561'
p216
sI215
S'edmond98achieving'
p217
sI216
S'rey01location'
p218
sI217
S'476368'
p219
sI218
S'240825'
p220
sI219
S'claypool99optimizatizing'
p221
sI220
S'paradiso00design'
p222
sI221
S'315017'
p223
sI222
S'92649'
p224
sI223
S'73094'
p225
sI224
S'354467'
p226
sI225
S'shneiderman99supporting'
p227
sI226
S'55934'
p228
sI227
S'groh99automated'
p229
sI228
S'domingos99metacost'
p230
sI229
S'codish98efficient'
p231
sI230
S'soundalgekar01internet'
p232
sI231
S'532672'
p233
sI232
S'460612'
p234
sI233
S'77029'
p235
sI234
S'gelati01agents'
p236
sI235
S'zhang01dyda'
p237
sI236
S'halevy00theory'
p238
sI237
S'dlrg02background'
p239
sI238
S'piater99toward'
p240
sI239
S'aberg01collection'
p241
sI240
S'155240'
p242
sI241
S'172324'
p243
sI242
S'298012'
p244
sI243
S'levison96connecting'
p245
sI244
S'page98pagerank'
p246
sI245
S'panzarasa01social'
p247
sI246
S'489313'
p248
sI247
S'dubois00augmented'
p249
sI248
S'devanbu99chime'
p250
sI249
S'likas99training'
p251
sI250
S'535484'
p252
sI251
S'508515'
p253
sI252
S'hero98robust'
p254
sI253
S'stanoi00reverse'
p255
sI254
S'mann01partial'
p256
sI255
S'289242'
p257
sI256
S'128910'
p258
sI257
S'26484'
p259
sI258
S'eriksson98sics'
p260
sI259
S'386535'
p261
sI260
S'wilke96framework'
p262
sI261
S'ciravegna01lp'
p263
sI262
S'cal01accessing'
p264
sI263
S'gaskett00reinforcement'
p265
sI264
S'mk00implementing'
p266
sI265
S'norman96alarms'
p267
sI266
S'451065'
p268
sI267
S'roth00using'
p269
sI268
S'anastasi99reliable'
p270
sI269
S'bartoli01three'
p271
sI270
S'hightower01survey'
p272
sI271
S'63694'
p273
sI272
S'horn01ai'
p274
sI273
S'flank98layered'
p275
sI274
S'441373'
p276
sI275
S'hoque98information'
p277
sI276
S'carreras01hybrid'
p278
sI277
S'greenberg99adapting'
p279
sI278
S'schneider00disseminating'
p280
sI279
S'2056'
p281
sI280
S'420817'
p282
sI281
S'467024'
p283
sI282
S'cussens99loglinear'
p284
sI283
S'7980'
p285
sI284
S'21283'
p286
sI285
S'hodkinson99decidable'
p287
sI286
S'critchlow00datafoundry'
p288
sI287
S'104129'
p289
sI288
S'cohen01equix'
p290
sI289
S'hustadt00normal'
p291
sI290
S'306088'
p292
sI291
S'nottelmann01mind'
p293
sI292
S'williamson00random'
p294
sI293
S'panzarasa02formalizing'
p295
sI294
S'amitay00incommonsense'
p296
sI295
S'emmerich00implementing'
p297
sI296
S'holliday00database'
p298
sI297
S'tice00practical'
p299
sI298
S'milicevic00socratenon'
p300
sI299
S'17752'
p301
sI300
S'holliday00exploiting'
p302
sI301
S'kon00flexible'
p303
sI302
S'scheffer01active'
p304
sI303
S'511540'
p305
sI304
S'sun99symbol'
p306
sI305
S'bates98state'
p307
sI306
S'turner00improving'
p308
sI307
S'slonim00document'
p309
sI308
S'457459'
p310
sI309
S'papakonstantinou98query'
p311
sI310
S'jantke94nonstandard'
p312
sI311
S'310158'
p313
sI312
S'455785'
p314
sI313
S'yang98feature'
p315
sI314
S'giampapa00agent'
p316
sI315
S'14656'
p317
sI316
S'346149'
p318
sI317
S'johns01how'
p319
sI318
S'107700'
p320
sI319
S'bollacker99system'
p321
sI320
S'lester97cosmo'
p322
sI321
S'liu01rulebased'
p323
sI322
S'cruz99preserving'
p324
sI323
S'donini98allog'
p325
sI324
S'sloman98architectures'
p326
sI325
S'sun99from'
p327
sI326
S'abberley99thisl'
p328
sI327
S'althoff99using'
p329
sI328
S'calvanese02lossless'
p330
sI329
S'440022'
p331
sI330
S'herbrich99support'
p332
sI331
S'ulrich00appearancebased'
p333
sI332
S'vanhoof98specialising'
p334
sI333
S'533894'
p335
sI334
S'ghavamzadeh01continuoustime'
p336
sI335
S'533891'
p337
sI336
S'108580'
p338
sI337
S'kasif98probabilistic'
p339
sI338
S'470345'
p340
sI339
S'bergo01text'
p341
sI340
S'322267'
p342
sI341
S'316064'
p343
sI342
S'cvetkovic99genetic'
p344
sI343
S'paradiso00footnotes'
p345
sI344
S'79013'
p346
sI345
S'bettini99symbolic'
p347
sI346
S'bailey01engineering'
p348
sI347
S'295196'
p349
sI348
S'257648'
p350
sI349
S'wilson01framework'
p351
sI350
S'dourish01seeking'
p352
sI351
S'hammer99information'
p353
sI352
S'421686'
p354
sI353
S'boutilier01partialorder'
p355
sI354
S'calvanese00containment'
p356
sI355
S'vanschooten00process'
p357
sI356
S'540663'
p358
sI357
S'kopp00planning'
p359
sI358
S'68836'
p360
sI359
S'deligiannidis02dlove'
p361
sI360
S'slivinskas00foundation'
p362
sI361
S'233508'
p363
sI362
S'445175'
p364
sI363
S'distefano01coordinating'
p365
sI364
S'cicirello01wasp'
p366
sI365
S'296568'
p367
sI366
S'crescenzi01roadrunner'
p368
sI367
S'187087'
p369
sI368
S'vanlaerhoven00what'
p370
sI369
S'sun98some'
p371
sI370
S'307268'
p372
sI371
S'more00tertiary'
p373
sI372
S'jiang02path'
p374
sI373
S'christophides00community'
p375
sI374
S'520593'
p376
sI375
S'hannebauer99rapid'
p377
sI376
S'mertz98conception'
p378
sI377
S'weinstein99agentbased'
p379
sI378
S'schroeder01fuzzy'
p380
sI379
S'castelfranchi99deliberate'
p381
sI380
S'pelikan99bivariate'
p382
sI381
S'71076'
p383
sI382
S'gray01dagents'
p384
sI383
S'tsuda00subspace'
p385
sI384
S'deweerdt00plan'
p386
sI385
S'papadias01efficient'
p387
sI386
S'212779'
p388
sI387
S'sycara95using'
p389
sI388
S'388587'
p390
sI389
S'williams01searchable'
p391
sI390
S'cabri98reactive'
p392
sI391
S'sandholm99algorithms'
p393
sI392
S'mcroy95repair'
p394
sI393
S'lopez01framework'
p395
sI394
S'206655'
p396
sI395
S'298827'
p397
sI396
S'ahanger99technique'
p398
sI397
S'300668'
p399
sI398
S'dahl99eel'
p400
sI399
S'boyack01information'
p401
sI400
S'jensen99learning'
p402
sI401
S'344548'
p403
sI402
S'496719'
p404
sI403
S'renambot00cavestudy'
p405
sI404
S'haarslev99description'
p406
sI405
S'leonhardi99virtual'
p407
sI406
S'435716'
p408
sI407
S'kokku02halfpipe'
p409
sI408
S'28223'
p410
sI409
S'boley99document'
p411
sI410
S'111958'
p412
sI411
S'119174'
p413
sI412
S'440714'
p414
sI413
S'kadobayashi98seamless'
p415
sI414
S'wijsen99generalizing'
p416
sI415
S'hahn95integrating'
p417
sI416
S'24318'
p418
sI417
S'hofmann99probabilistic'
p419
sI418
S'dekhtyar99probabilistic'
p420
sI419
S'roobaert00directsvm'
p421
sI420
S'wah00constrained'
p422
sI421
S'landau02comparison'
p423
sI422
S'arisha99impact'
p424
sI423
S'meuss99improving'
p425
sI424
S'306507'
p426
sI425
S'mataric00sensorymotor'
p427
sI426
S'sampaio00design'
p428
sI427
S'banko99generating'
p429
sI428
S'park01analysis'
p430
sI429
S'360736'
p431
sI430
S'fleuret99graded'
p432
sI431
S'503243'
p433
sI432
S'hazelhurst98binary'
p434
sI433
S'111340'
p435
sI434
S'7537'
p436
sI435
S'puzicha99theory'
p437
sI436
S'timm01enterprise'
p438
sI437
S'20379'
p439
sI438
S'dean99finding'
p440
sI439
S'kan01domainspecific'
p441
sI440
S'muscettola98reformulating'
p442
sI441
S'vilalta00quantification'
p443
sI442
S'mackay98augmented'
p444
sI443
S'szummer02partially'
p445
sI444
S'billard98experiments'
p446
sI445
S'singhal99document'
p447
sI446
S'guestrin02algorithmdirected'
p448
sI447
S'norman95goal'
p449
sI448
S'taniguchi01mining'
p450
sI449
S'455997'
p451
sI450
S'449833'
p452
sI451
S'292710'
p453
sI452
S'soderland99learning'
p454
sI453
S'mascolo99finegrained'
p455
sI454
S'dimitrova02web'
p456
sI455
S'schuldt99concurrency'
p457
sI456
S'asada98robocup'
p458
sI457
S'328242'
p459
sI458
S'knight00system'
p460
sI459
S'luck01conceptual'
p461
sI460
S'98111'
p462
sI461
S'509024'
p463
sI462
S'383150'
p464
sI463
S'fuhr98hyspirit'
p465
sI464
S'42037'
p466
sI465
S'353348'
p467
sI466
S'garland00learning'
p468
sI467
S'huntsberger98bismarc'
p469
sI468
S'kiciman00using'
p470
sI469
S'tandler01software'
p471
sI470
S'bergamaschi98intelligent'
p472
sI471
S'266462'
p473
sI472
S'kotagiri01transaction'
p474
sI473
S'roth98learning'
p475
sI474
S'220216'
p476
sI475
S'257383'
p477
sI476
S'300584'
p478
sI477
S'shu98using'
p479
sI478
S'chagas98learning'
p480
sI479
S'manolescu01efficient'
p481
sI480
S'180347'
p482
sI481
S'antifakos01exploration'
p483
sI482
S'bergmark02focused'
p484
sI483
S'slaughter00open'
p485
sI484
S'445127'
p486
sI485
S'30500'
p487
sI486
S'roy99coastal'
p488
sI487
S'116696'
p489
sI488
S'454312'
p490
sI489
S'539922'
p491
sI490
S'joachims02unbiased'
p492
sI491
S'liechti00digital'
p493
sI492
S'prodromidis99comparative'
p494
sI493
S'46840'
p495
sI494
S'bechhofer01oiled'
p496
sI495
S'lohse97consumer'
p497
sI496
S'stewart99single'
p498
sI497
S'9619'
p499
sI498
S'jurisica96inductive'
p500
sI499
S'bonifati01warehousing'
p501
sI500
S'szabo95virtual'
p502
sI501
S'buneman98equality'
p503
sI502
S'piater00distinctive'
p504
sI503
S'bowling01rational'
p505
sI504
S'vanschooten01structuring'
p506
sI505
S'cluet99using'
p507
sI506
S'xu01agentbased'
p508
sI507
S'smyth01data'
p509
sI508
S'japan98learning'
p510
sI509
S'tammer96learning'
p511
sI510
S'125615'
p512
sI511
S'442965'
p513
sI512
S'dong99maintaining'
p514
sI513
S'schwabacher98multilevel'
p515
sI514
S'536962'
p516
sI515
S'knublauch00towards'
p517
sI516
S'14648'
p518
sI517
S'441927'
p519
sI518
S'455752'
p520
sI519
S'agichtein01learning'
p521
sI520
S'412057'
p522
sI521
S'godfrey98integrity'
p523
sI522
S'jalali-sohi01multimodal'
p524
sI523
S'streitz98roomware'
p525
sI524
S'sarawagi00data'
p526
sI525
S'ginsberg99gib'
p527
sI526
S'amin02dynamic'
p528
sI527
S'azuma99tracking'
p529
sI528
S'98937'
p530
sI529
S'horvitz99principles'
p531
sI530
S'rosenthal00view'
p532
sI531
S'45086'
p533
sI532
S'greenberg01phidgets'
p534
sI533
S'508816'
p535
sI534
S'deloach99multiagent'
p536
sI535
S'kitano97robocup'
p537
sI536
S'camacho01mapweb'
p538
sI537
S'41784'
p539
sI538
S'ambite01simplifying'
p540
sI539
S'cho00synchronizing'
p541
sI540
S'amin99agentoriented'
p542
sI541
S'274436'
p543
sI542
S'mascardi99agentbased'
p544
sI543
S'48055'
p545
sI544
S'broekstra02enabling'
p546
sI545
S'cohn01missing'
p547
sI546
S'goecks99automatically'
p548
sI547
S'rigoll99statistical'
p549
sI548
S'randell02well'
p550
sI549
S'wagner99toward'
p551
sI550
S'295186'
p552
sI551
S'cunningham01developing'
p553
sI552
S'dautenhahn99studying'
p554
sI553
S'480233'
p555
sI554
S'68623'
p556
sI555
S'graef00construction'
p557
sI556
S'534078'
p558
sI557
S'vitter99external'
p559
sI558
S'29745'
p560
sI559
S'169000'
p561
sI560
S'billsus00learning'
p562
sI561
S'caropreso00statistical'
p563
sI562
S'83140'
p564
sI563
S'100598'
p565
sI564
S'288424'
p566
sI565
S'artale01reasoning'
p567
sI566
S'weiss00building'
p568
sI567
S'morley96semantics'
p569
sI568
S'laird94evolution'
p570
sI569
S'24549'
p571
sI570
S'kurimo99latent'
p572
sI571
S'rickel98animated'
p573
sI572
S'vogt00how'
p574
sI573
S'wermter01emergent'
p575
sI574
S'jamil99belief'
p576
sI575
S'cugola01peerware'
p577
sI576
S'aslam98static'
p578
sI577
S'78138'
p579
sI578
S'campos01searching'
p580
sI579
S'chan98approximate'
p581
sI580
S'pan00prosody'
p582
sI581
S'337690'
p583
sI582
S'baltsavias00integrating'
p584
sI583
S'gurret99basis'
p585
sI584
S'flake00agents'
p586
sI585
S'455961'
p587
sI586
S'neaves98dynamic'
p588
sI587
S'537176'
p589
sI588
S'fischer00user'
p590
sI589
S'aoki99realtime'
p591
sI590
S'arge99efficient'
p592
sI591
S'herbrich99regression'
p593
sI592
S'cremers00diffusionsnakes'
p594
sI593
S'rao95bdi'
p595
sI594
S'roy00integration'
p596
sI595
S'greiff98theory'
p597
sI596
S'ng01stable'
p598
sI597
S'540501'
p599
sI598
S'karadkar00evolution'
p600
sI599
S'flake01towards'
p601
sI600
S'226856'
p602
sI601
S'226124'
p603
sI602
S'marchionini98interfaces'
p604
sI603
S'burkhard99bdi'
p605
sI604
S'35592'
p606
sI605
S'449007'
p607
sI606
S'mcdonald00heterogeneous'
p608
sI607
S'driessens01speeding'
p609
sI608
S'makar01hierarchical'
p610
sI609
S'langley95acquisition'
p611
sI610
S'504171'
p612
sI611
S'100157'
p613
sI612
S'mandl01topographic'
p614
sI613
S'457268'
p615
sI614
S'kurki99agents'
p616
sI615
S'grahne01algebraic'
p617
sI616
S'428316'
p618
sI617
S'527800'
p619
sI618
S'slivinskas01adaptable'
p620
sI619
S'23381'
p621
sI620
S'527578'
p622
sI621
S'wijsen01query'
p623
sI622
S'marsh99cooperative'
p624
sI623
S'dwyer99patterns'
p625
sI624
S'pal01rough'
p626
sI625
S'decleir99database'
p627
sI626
S'adams99stable'
p628
sI627
S'zhao98empirical'
p629
sI628
S'bergamaschi98semantic'
p630
sI629
S'weber00viewpointinvariant'
p631
sI630
S'sreerupa98dynamic'
p632
sI631
S'esteban01using'
p633
sI632
S'10227'
p634
sI633
S'cui01lineage'
p635
sI634
S'huget02model'
p636
sI635
S'faensen01hermes'
p637
sI636
S'bradford98performance'
p638
sI637
S'mark00multiagent'
p639
sI638
S'jarke00concept'
p640
sI639
S'moreau00mobile'
p641
sI640
S'446289'
p642
sI641
S'114563'
p643
sI642
S'55643'
p644
sI643
S'huang01appliance'
p645
sI644
S'middleton01capturing'
p646
sI645
S'389181'
p647
sI646
S'koubarakis99tractable'
p648
sI647
S'muth99integrating'
p649
sI648
S'federici95advances'
p650
sI649
S'binder01design'
p651
sI650
S'376145'
p652
sI651
S'rafter00automated'
p653
sI652
S'43511'
p654
sI653
S'simmons00first'
p655
sI654
S'chen01optimal'
p656
sI655
S'erni98generic'
p657
sI656
S'oard01clef'
p658
sI657
S'feiner99importance'
p659
sI658
S'mihalcea99word'
p660
sI659
S'botchers96layout'
p661
sI660
S'liu98statistical'
p662
sI661
S'524282'
p663
sI662
S'picco99lime'
p664
sI663
S'138121'
p665
sI664
S'456508'
p666
sI665
S'dixon00resolutionbased'
p667
sI666
S'jantke93types'
p668
sI667
S'resnik98parallel'
p669
sI668
S'240151'
p670
sI669
S'schwabacher96use'
p671
sI670
S'277650'
p672
sI671
S'vincent01agent'
p673
sI672
S'sheng99graph'
p674
sI673
S'parsons98agents'
p675
sI674
S'kendall00java'
p676
sI675
S'ramampiaro00supporting'
p677
sI676
S'marsh01guiding'
p678
sI677
S'namee01proposal'
p679
sI678
S'250815'
p680
sI679
S'abowd00charting'
p681
sI680
S'nie01mining'
p682
sI681
S'degeratu01latencydependent'
p683
sI682
S'wolski98fuzzy'
p684
sI683
S'277897'
p685
sI684
S'185650'
p686
sI685
S'308936'
p687
sI686
S'cavedon95revisiting'
p688
sI687
S'landau01atnosferes'
p689
sI688
S'bonner98state'
p690
sI689
S'hohl99nexus'
p691
sI690
S'300048'
p692
sI691
S'miles00designing'
p693
sI692
S'jordan98introduction'
p694
sI693
S'lerner99comparative'
p695
sI694
S'toenshoff01flexible'
p696
sI695
S'wendler98cbr'
p697
sI696
S'323158'
p698
sI697
S'phan01new'
p699
sI698
S'453805'
p700
sI699
S'cakmakci02context'
p701
sI700
S'518472'
p702
sI701
S'46858'
p703
sI702
S'2102'
p704
sI703
S'vanthong00speechbot'
p705
sI704
S'weiss01predicting'
p706
sI705
S'baker98distributional'
p707
sI706
S'509627'
p708
sI707
S'469106'
p709
sI708
S'chantemargue99collective'
p710
sI709
S'459183'
p711
sI710
S'liu98relationlog'
p712
sI711
S'onoda98asymptotic'
p713
sI712
S'146066'
p714
sI713
S'girod00development'
p715
sI714
S'mirmehdi01extracting'
p716
sI715
S'cabri00mars'
p717
sI716
S'weiss99multiagent'
p718
sI717
S'535112'
p719
sI718
S'488116'
p720
sI719
S'frey99estimating'
p721
sI720
S'38408'
p722
sI721
S'236597'
p723
sI722
S'snoek02stateart'
p724
sI723
S'li01minimizing'
p725
sI724
S'20419'
p726
sI725
S'478335'
p727
sI726
S'198191'
p728
sI727
S'parker98adaptive'
p729
sI728
S'soderland01building'
p730
sI729
S'brazier99compositional'
p731
sI730
S'guo00learning'
p732
sI731
S'301428'
p733
sI732
S'oria99defining'
p734
sI733
S'450055'
p735
sI734
S'mihalcea98word'
p736
sI735
S'455694'
p737
sI736
S'fensel00workshop'
p738
sI737
S'phan02extensible'
p739
sI738
S'25809'
p740
sI739
S'257460'
p741
sI740
S'caputo01from'
p742
sI741
S'holmquist99supporting'
p743
sI742
S'craswell00server'
p744
sI743
S'531549'
p745
sI744
S'oakley00putting'
p746
sI745
S'abraham00optimal'
p747
sI746
S'369356'
p748
sI747
S'gibbins01scalability'
p749
sI748
S'wijsen99stringbased'
p750
sI749
S'ashbrook02learning'
p751
sI750
S'463357'
p752
sI751
S'heskes98solving'
p753
sI752
S'riley00behavior'
p754
sI753
S'langley95applications'
p755
sI754
S'shapiro99snep'
p756
sI755
S'316446'
p757
sI756
S'veloso98playing'
p758
sI757
S'534081'
p759
sI758
S'ware00rotating'
p760
sI759
S'brandes01visual'
p761
sI760
S'ambroszkiewicz97model'
p762
sI761
S'edwards97systematic'
p763
sI762
S'shasha02algorithmics'
p764
sI763
S'barros97towards'
p765
sI764
S'ljungstrand99webwho'
p766
sI765
S'sterritt00exploring'
p767
sI766
S'heintz00robosoc'
p768
sI767
S'touzet01side'
p769
sI768
S'196686'
p770
sI769
S'462179'
p771
sI770
S'wess94casebased'
p772
sI771
S'lien98automated'
p773
sI772
S'jeh02simrank'
p774
sI773
S'merz99genetic'
p775
sI774
S'mudgal00bilateral'
p776
sI775
S'krum02speech'
p777
sI776
S'flach98strongly'
p778
sI777
S'sudo01automatic'
p779
sI778
S'332789'
p780
sI779
S'34322'
p781
sI780
S'dyreson99capturing'
p782
sI781
S'azuma99challenge'
p783
sI782
S'david01agentbased'
p784
sI783
S'460350'
p785
sI784
S'502642'
p786
sI785
S'griffiths99cooperative'
p787
sI786
S'harik99linkage'
p788
sI787
S'131669'
p789
sI788
S'266823'
p790
sI789
S'papazoglou99contextualizing'
p791
sI790
S'184462'
p792
sI791
S'311589'
p793
sI792
S'jonker01temporal'
p794
sI793
S'glover99recommending'
p795
sI794
S'brandt01antisocial'
p796
sI795
S'kayan99evaluation'
p797
sI796
S'brandt01cryptographic'
p798
sI797
S'dix99places'
p799
sI798
S'ambroszkiewicz99agent'
p800
sI799
S'461688'
p801
sI800
S'374208'
p802
sI801
S'davison99discoweb'
p803
sI802
S'baldoni00intentionguided'
p804
sI803
S'wu00adaptive'
p805
sI804
S'ijspeert98evolving'
p806
sI805
S'bauer99infobeans'
p807
sI806
S'pitoura99exploiting'
p808
sI807
S'varela99ant'
p809
sI808
S'naumann01from'
p810
sI809
S'289676'
p811
sI810
S'helmer01software'
p812
sI811
S'schweiss99architecture'
p813
sI812
S'duch98optimization'
p814
sI813
S'himberg01time'
p815
sI814
S'27008'
p816
sI815
S'87928'
p817
sI816
S'327415'
p818
sI817
S'hekanaho98dogma'
p819
sI818
S'6439'
p820
sI819
S'kumova00flexible'
p821
sI820
S'koubarakis99querying'
p822
sI821
S'yang00shopping'
p823
sI822
S'gendelman00fast'
p824
sI823
S'aguil00querying'
p825
sI824
S'jording97anthropomorphic'
p826
sI825
S'abonyi00structure'
p827
sI826
S'nahm00mutually'
p828
sI827
S'524726'
p829
sI828
S'sima01computational'
p830
sI829
S'lind01issues'
p831
sI830
S'84828'
p832
sI831
S'gray99finding'
p833
sI832
S'ray01representing'
p834
sI833
S'deloach01analysis'
p835
sI834
S'scheuermann98data'
p836
sI835
S'zhao02criterion'
p837
sI836
S'vanschooten99report'
p838
sI837
S'bhalotia02keyword'
p839
sI838
S'dix00impact'
p840
sI839
S'489180'
p841
sI840
S'feris00tracking'
p842
sI841
S'rizzo97personalitydriven'
p843
sI842
S'marsella98instructors'
p844
sI843
S'pirjanian00multirobot'
p845
sI844
S'458592'
p846
sI845
S'marsh01evaluating'
p847
sI846
S'bachpedersen98multidimensional'
p848
sI847
S'middleton02exploiting'
p849
sI848
S'kanungo99omnipage'
p850
sI849
S'492009'
p851
sI850
S'249151'
p852
sI851
S'liskov99providing'
p853
sI852
S'li01characterizing'
p854
sI853
S'simula99selforganizing'
p855
sI854
S'boyapati00towards'
p856
sI855
S'olson00probabilistic'
p857
sI856
S'yin00knowledgebased'
p858
sI857
S'bastert01landscapes'
p859
sI858
S'steiner98omsjava'
p860
sI859
S'terveen98evaluating'
p861
sI860
S'465022'
p862
sI861
S'96518'
p863
sI862
S'baldan01mutaclp'
p864
sI863
S'duch00optimization'
p865
sI864
S'453969'
p866
sI865
S'hu00mobile'
p867
sI866
S'sachdev98spatial'
p868
sI867
S'21655'
p869
sI868
S'49524'
p870
sI869
S'papaioannou01manufacturing'
p871
sI870
S'500641'
p872
sI871
S'cruz99user'
p873
sI872
S'505452'
p874
sI873
S'huang01architecture'
p875
sI874
S'ijspeert99evolution'
p876
sI875
S'davison00topical'
p877
sI876
S'445103'
p878
sI877
S'zhang99evolving'
p879
sI878
S'ashish98optimizing'
p880
sI879
S'crabbe99secondorder'
p881
sI880
S'faber99using'
p882
sI881
S'galhardas01improving'
p883
sI882
S'345377'
p884
sI883
S'sabater99engineering'
p885
sI884
S'malec00implementing'
p886
sI885
S'bakker01lart'
p887
sI886
S'56093'
p888
sI887
S'georgeff99beliefdesireintention'
p889
sI888
S'pitoura01locating'
p890
sI889
S'broersen01boid'
p891
sI890
S'455426'
p892
sI891
S'458848'
p893
sI892
S'62931'
p894
sI893
S'haddaway99overview'
p895
sI894
S'joachims01statistical'
p896
sI895
S'52576'
p897
sI896
S'muhlenbein99convergence'
p898
sI897
S'376260'
p899
sI898
S'zini01caselp'
p900
sI899
S'wonsever01contextual'
p901
sI900
S'sun01world'
p902
sI901
S'sadri99computational'
p903
sI902
S'setzkorn02evolving'
p904
sI903
S'hart99comparing'
p905
sI904
S'baulier00datablitz'
p906
sI905
S'484682'
p907
sI906
S'neumann99experience'
p908
sI907
S'459887'
p909
sI908
S'magoulas01hybrid'
p910
sI909
S'90601'
p911
sI910
S'203721'
p912
sI911
S'mankoff98bringing'
p913
sI912
S'mankoff00providing'
p914
sI913
S'535300'
p915
sI914
S'455229'
p916
sI915
S'beaudouin-lafon00instrumental'
p917
sI916
S'532267'
p918
sI917
S'lin01efficiently'
p919
sI918
S'455220'
p920
sI919
S'leung01towards'
p921
sI920
S'452506'
p922
sI921
S'conrad00xml'
p923
sI922
S'yang00improving'
p924
sI923
S'eiter00data'
p925
sI924
S'may99how'
p926
sI925
S'133494'
p927
sI926
S'beigl00mediacups'
p928
sI927
S'474192'
p929
sI928
S'202521'
p930
sI929
S'450284'
p931
sI930
S'zhao00sfs'
p932
sI931
S'andre98integrating'
p933
sI932
S'nigam01using'
p934
sI933
S'pelikan99parameterless'
p935
sI934
S'415300'
p936
sI935
S'yvon94selflearning'
p937
sI936
S'stevens01oiling'
p938
sI937
S'300852'
p939
sI938
S'rousseau97improvisational'
p940
sI939
S'muller00eventdriven'
p941
sI940
S'539761'
p942
sI941
S'7036'
p943
sI942
S'nrvag99vagabond'
p944
sI943
S'mittal99selecting'
p945
sI944
S'ambite01fast'
p946
sI945
S'poupyrev98virtual'
p947
sI946
S'vogt99fusion'
p948
sI947
S'508492'
p949
sI948
S'bruno02evaluating'
p950
sI949
S'samtani98recent'
p951
sI950
S'noh99uncertain'
p952
sI951
S'murray98kaleidoquery'
p953
sI952
S'410405'
p954
sI953
S'470572'
p955
sI954
S'dix98nonmonotonic'
p956
sI955
S'9576'
p957
sI956
S'chien00comparative'
p958
sI957
S'442161'
p959
sI958
S'442160'
p960
sI959
S'salles98development'
p961
sI960
S'filho98gathering'
p962
sI961
S'tzouramanis99overlapping'
p963
sI962
S'funt98is'
p964
sI963
S'wilhelm99introducing'
p965
sI964
S'301891'
p966
sI965
S'14331'
p967
sI966
S'7785'
p968
sI967
S'shavlik99instructable'
p969
sI968
S'oliveira00agents'
p970
sI969
S'artale02temporal'
p971
sI970
S'waern98concall'
p972
sI971
S'445758'
p973
sI972
S'mohan99repeating'
p974
sI973
S'147521'
p975
sI974
S'oyama00cooperative'
p976
sI975
S'schiele99situation'
p977
sI976
S'nichols01using'
p978
sI977
S'koch99simple'
p979
sI978
S'cunningham99experience'
p980
sI979
S'langheinrich00first'
p981
sI980
S'quan00argos'
p982
sI981
S'beigi97metaseek'
p983
sI982
S'lacher01facilitating'
p984
sI983
S'457806'
p985
sI984
S'369039'
p986
sI985
S'ha98geometric'
p987
sI986
S'196348'
p988
sI987
S'cohen01learning'
p989
sI988
S'103027'
p990
sI989
S'turk98moving'
p991
sI990
S'rabarijaona99building'
p992
sI991
S'srinivasan02web'
p993
sI992
S'meuss98dag'
p994
sI993
S'sherrah00fusion'
p995
sI994
S'feris00detection'
p996
sI995
S'ahamad99scalable'
p997
sI996
S'446625'
p998
sI997
S'66053'
p999
sI998
S'wiederhold95valueadded'
p1000
sI999
S'117999'
p1001
sI1000
S'bartoli00online'
p1002
sI1001
S'493991'
p1003
sI1002
S'goguen99social'
p1004
sI1003
S'liu00extended'
p1005
sI1004
S'486074'
p1006
sI1005
S'maedche02bootstrapping'
p1007
sI1006
S'43223'
p1008
sI1007
S'ciravegna00learning'
p1009
sI1008
S'452192'
p1010
sI1009
S'goldberg99coordinating'
p1011
sI1010
S'231484'
p1012
sI1011
S'wooldridge99methodology'
p1013
sI1012
S'132458'
p1014
sI1013
S'bazzan99moral'
p1015
sI1014
S'ambroszkiewicz98cooperation'
p1016
sI1015
S'thrun98map'
p1017
sI1016
S'knublauch02extreme'
p1018
sI1017
S'298782'
p1019
sI1018
S'park01segmentbased'
p1020
sI1019
S'35804'
p1021
sI1020
S'chen98webmate'
p1022
sI1021
S'449447'
p1023
sI1022
S'bettini01klava'
p1024
sI1023
S'blok00top'
p1025
sI1024
S'duch00computational'
p1026
sI1025
S'kusiak00decomposition'
p1027
sI1026
S'77796'
p1028
sI1027
S'xu02modeling'
p1029
sI1028
S'hustadt00verification'
p1030
sI1029
S'tveit01survey'
p1031
sI1030
S'benton98compiling'
p1032
sI1031
S'ciancarini02coordination'
p1033
sI1032
S'myers01interacting'
p1034
sI1033
S'amato99probabilistic'
p1035
sI1034
S'sukhatme99embedding'
p1036
sI1035
S'386938'
p1037
sI1036
S'241799'
p1038
sI1037
S'wagner01xmlbased'
p1039
sI1038
S'kushmerick02finitestate'
p1040
sI1039
S'french98evaluating'
p1041
sI1040
S'pirjanian99behavior'
p1042
sI1041
S'rousseau97socialpsychological'
p1043
sI1042
S'singhal01case'
p1044
sI1043
S'pinheirodasilva00umli'
p1045
sI1044
S'75402'
p1046
sI1045
S'43488'
p1047
sI1046
S'zhang01supporting'
p1048
sI1047
S'vianu01web'
p1049
sI1048
S'16755'
p1050
sI1049
S'292524'
p1051
sI1050
S'streitz99iland'
p1052
sI1051
S'531754'
p1053
sI1052
S'arge02optimal'
p1054
sI1053
S'532128'
p1055
sI1054
S'bowman01introduction'
p1056
sI1055
S'494575'
p1057
sI1056
S'441053'
p1058
sI1057
S'200824'
p1059
sI1058
S'509926'
p1060
sI1059
S'cohen98integration'
p1061
sI1060
S'82362'
p1062
sI1061
S'kullbach99querying'
p1063
sI1062
S'karypis00concept'
p1064
sI1063
S'305534'
p1065
sI1064
S'81142'
p1066
sI1065
S'melin01atlas'
p1067
sI1066
S'horling99using'
p1068
sI1067
S'zhang01efficient'
p1069
sI1068
S'539227'
p1070
sI1069
S'rungsarityotin00finding'
p1071
sI1070
S'heinze99plan'
p1072
sI1071
S'su00replicable'
p1073
sI1072
S'stolzenburg00spatial'
p1074
sI1073
S'lacorte99agent'
p1075
sI1074
S'308951'
p1076
sI1075
S'4579'
p1077
sI1076
S'aha97casebased'
p1078
sI1077
S'blockeel00executing'
p1079
sI1078
S'476601'
p1080
sI1079
S'wache01ontologybased'
p1081
sI1080
S'scholer02compression'
p1082
sI1081
S'cacheda01superimposing'
p1083
sI1082
S'raman01potters'
p1084
sI1083
S'honavar98distributed'
p1085
sI1084
S'450405'
p1086
sI1085
S'hu01overview'
p1087
sI1086
S'454124'
p1088
sI1087
S'paradiso99cybershoe'
p1089
sI1088
S'lawrence00context'
p1090
sI1089
S'youll00impulse'
p1091
sI1090
S'puliafito00using'
p1092
sI1091
S'455346'
p1093
sI1092
S'basin99reflective'
p1094
sI1093
S'508732'
p1095
sI1094
S'spelt99theorem'
p1096
sI1095
S'kinny96methodology'
p1097
sI1096
S'49194'
p1098
sI1097
S'wroblewski00analyzing'
p1099
sI1098
S'386167'
p1100
sI1099
S'534400'
p1101
sI1100
S'251052'
p1102
sI1101
S'funkhouser02search'
p1103
sI1102
S'martinez00recognition'
p1104
sI1103
S'marini00specification'
p1105
sI1104
S'lee01collaborative'
p1106
sI1105
S'yangarber01scenario'
p1107
sI1106
S'amato98supporting'
p1108
sI1107
S'459233'
p1109
sI1108
S'128773'
p1110
sI1109
S'weng00incremental'
p1111
sI1110
S'deutschmann98compressive'
p1112
sI1111
S'125291'
p1113
sI1112
S'crabbe01goal'
p1114
sI1113
S'11805'
p1115
sI1114
S'jakobi98running'
p1116
sI1115
S'5749'
p1117
sI1116
S'flake02extracting'
p1118
sI1117
S'373986'
p1119
sI1118
S'pascoe98adding'
p1120
sI1119
S'xie02locality'
p1121
sI1120
S'johnson99cambridge'
p1122
sI1121
S'parekh00constructive'
p1123
sI1122
S'ali00incremental'
p1124
sI1123
S'miller00training'
p1125
sI1124
S'13229'
p1126
sI1125
S'459526'
p1127
sI1126
S'schut00intention'
p1128
sI1127
S'dubois99classification'
p1129
sI1128
S'202510'
p1130
sI1129
S'stanley01evolving'
p1131
sI1130
S'dignum00towards'
p1132
sI1131
S'squire99improving'
p1133
sI1132
S'hinze01how'
p1134
sI1133
S'laviola99flex'
p1135
sI1134
S'bertino99conceptual'
p1136
sI1135
S'455655'
p1137
sI1136
S'dotsch00tic'
p1138
sI1137
S'chan98toward'
p1139
sI1138
S'menczer99adaptive'
p1140
sI1139
S'455651'
p1141
sI1140
S'riely99trust'
p1142
sI1141
S'shehory99emergent'
p1143
sI1142
S'478775'
p1144
sI1143
S'323955'
p1145
sI1144
S'71092'
p1146
sI1145
S'sandholm01winner'
p1147
sI1146
S'rauterberg98build'
p1148
sI1147
S'68306'
p1149
sI1148
S'abowd00classroom'
p1150
sI1149
S'camacho00travelplan'
p1151
sI1150
S'467872'
p1152
sI1151
S'crutchfield99evolutionary'
p1153
sI1152
S'bowling01convergence'
p1154
sI1153
S'84358'
p1155
sI1154
S'34291'
p1156
sI1155
S'powell00impact'
p1157
sI1156
S'schuldt99transactions'
p1158
sI1157
S'jennings00autonomous'
p1159
sI1158
S'vagina03cryptographic'
p1160
sI1159
S'419282'
p1161
sI1160
S'forlizzi99data'
p1162
sI1161
S'112493'
p1163
sI1162
S'brewington99mobile'
p1164
sI1163
S'giorgini01multiagent'
p1165
sI1164
S'sakakibara94learning'
p1166
sI1165
S'jonsson01automated'
p1167
sI1166
S'45960'
p1168
sI1167
S'lenzmann97contractnetbased'
p1169
sI1168
S'mcroy98achieving'
p1170
sI1169
S'schmidt00novel'
p1171
sI1170
S'christel98information'
p1172
sI1171
S'373966'
p1173
sI1172
S'lisetti00automatic'
p1174
sI1173
S'kim99effective'
p1175
sI1174
S'parker00current'
p1176
sI1175
S'70863'
p1177
sI1176
S'wu00discriminantem'
p1178
sI1177
S'veloso99cmunited'
p1179
sI1178
S'bailey01analysis'
p1180
sI1179
S'reitmayr01wearable'
p1181
sI1180
S'530219'
p1182
sI1181
S'roy00computational'
p1183
sI1182
S'194986'
p1184
sI1183
S'inoue01controlling'
p1185
sI1184
S'nottelmann01learning'
p1186
sI1185
S'59359'
p1187
sI1186
S'8263'
p1188
sI1187
S'heydon01vesta'
p1189
sI1188
S'50337'
p1190
sI1189
S'modha00clustering'
p1191
sI1190
S'clark00what'
p1192
sI1191
S'66208'
p1193
sI1192
S'471147'
p1194
sI1193
S'520409'
p1195
sI1194
S'388718'
p1196
sI1195
S'matzinger98computational'
p1197
sI1196
S'weng98visionguided'
p1198
sI1197
S'stepaniuk98optimizations'
p1199
sI1198
S'22358'
p1200
sI1199
S'massink99towards'
p1201
sI1200
S'sche01active'
p1202
sI1201
S'holden99adaptive'
p1203
sI1202
S'261630'
p1204
sI1203
S'itti99learning'
p1205
sI1204
S'decker98coordinating'
p1206
sI1205
S'201746'
p1207
sI1206
S'108321'
p1208
sI1207
S'cleary00generating'
p1209
sI1208
S'aha98feature'
p1210
sI1209
S'3733'
p1211
sI1210
S'6411'
p1212
sI1211
S'vitek99secure'
p1213
sI1212
S'wang98structure'
p1214
sI1213
S'fjeld98graspable'
p1215
sI1214
S'naumann00assessment'
p1216
sI1215
S'lutz99complexity'
p1217
sI1216
S'hourcade99architecture'
p1218
sI1217
S'paradiso99interactive'
p1219
sI1218
S'245254'
p1220
sI1219
S'black98probabilistic'
p1221
sI1220
S'stolzenburg01from'
p1222
sI1221
S'65816'
p1223
sI1222
S'449876'
p1224
sI1223
S'dinn99active'
p1225
sI1224
S'gabbard98usability'
p1226
sI1225
S'satoh01network'
p1227
sI1226
S'benerecetti97model'
p1228
sI1227
S'flach99firstorder'
p1229
sI1228
S'kantarcioglu02privacypreserving'
p1230
sI1229
S'mateer99highlyavailable'
p1231
sI1230
S'114091'
p1232
sI1231
S'timm00multiagent'
p1233
sI1232
S'508859'
p1234
sI1233
S'prendinger01social'
p1235
sI1234
S'han99efficient'
p1236
sI1235
S'210'
p1237
sI1236
S'bertino01measuring'
p1238
sI1237
S'fjeld98build'
p1239
sI1238
S'popescul00automatic'
p1240
sI1239
S'amyot00extension'
p1241
sI1240
S'marquez00machine'
p1242
sI1241
S'zhang99query'
p1243
sI1242
S'caragea01analysis'
p1244
sI1243
S'ghani00using'
p1245
sI1244
S'silverman01more'
p1246
sI1245
S'hermansky98traps'
p1247
sI1246
S'hindriks00architecture'
p1248
sI1247
S'bryson00hypothesis'
p1249
sI1248
S'deloach01specifying'
p1250
sI1249
S'348716'
p1251
sI1250
S'74893'
p1252
sI1251
S'3489'
p1253
sI1252
S'bassiliades01interbasekb'
p1254
sI1253
S'goguen00overview'
p1255
sI1254
S'302575'
p1256
sI1255
S'sengupta99constructing'
p1257
sI1256
S'shaw98clause'
p1258
sI1257
S'bjrk00powerview'
p1259
sI1258
S'rundensteiner98capacityaugmenting'
p1260
sI1259
S'280639'
p1261
sI1260
S'215383'
p1262
sI1261
S'afrati02answering'
p1263
sI1262
S'madden01fjording'
p1264
sI1263
S'cumby00relational'
p1265
sI1264
S'sparkman01automated'
p1266
sI1265
S'borrajo93bounded'
p1267
sI1266
S'yu99methodology'
p1268
sI1267
S'50203'
p1269
sI1268
S'539969'
p1270
sI1269
S'510071'
p1271
sI1270
S'323163'
p1272
sI1271
S'536016'
p1273
sI1272
S'hawking01which'
p1274
sI1273
S'bowman99interaction'
p1275
sI1274
S'57340'
p1276
sI1275
S'aksoy98textural'
p1277
sI1276
S'fickas99when'
p1278
sI1277
S'mizoguchi00using'
p1279
sI1278
S'210603'
p1280
sI1279
S'444362'
p1281
sI1280
S'fels98glovetalkii'
p1282
sI1281
S'kruschwitz01exploiting'
p1283
sI1282
S'9546'
p1284
sI1283
S'532373'
p1285
sI1284
S'granlund01patternsupported'
p1286
sI1285
S'453948'
p1287
sI1286
S'270207'
p1288
sI1287
S'zunino01representing'
p1289
sI1288
S'arimura01efficient'
p1290
sI1289
S'367649'
p1291
sI1290
S'busi00expressiveness'
p1292
sI1291
S'95715'
p1293
sI1292
S'506993'
p1294
sI1293
S'murthy00concept'
p1295
sI1294
S'445591'
p1296
sI1295
S'tresp98description'
p1297
sI1296
S'liu00threedimensional'
p1298
sI1297
S'454621'
p1299
sI1298
S'845'
p1300
sI1299
S'75123'
p1301
sI1300
S'wersing00competitive'
p1302
sI1301
S'ehmann01accurate'
p1303
sI1302
S'236095'
p1304
sI1303
S'33385'
p1305
sI1304
S'couvreur99speaker'
p1306
sI1305
S'gottlob02monadic'
p1307
sI1306
S'klesen00exploiting'
p1308
sI1307
S'20587'
p1309
sI1308
S'langley94oblivious'
p1310
sI1309
S'dick99mocsyn'
p1311
sI1310
S'rosenstein99continuous'
p1312
sI1311
S'364207'
p1313
sI1312
S'braumandl98evaluating'
p1314
sI1313
S'barros96business'
p1315
sI1314
S'inza99feature'
p1316
sI1315
S'moran99improvement'
p1317
sI1316
S'30494'
p1318
sI1317
S'heinonen96www'
p1319
sI1318
S'horling01using'
p1320
sI1319
S'stockinger01design'
p1321
sI1320
S'rasheed97guided'
p1322
sI1321
S'ormoneit01learning'
p1323
sI1322
S'yao98making'
p1324
sI1323
S'jourlin99general'
p1325
sI1324
S'38927'
p1326
sI1325
S'246390'
p1327
sI1326
S'5234'
p1328
sI1327
S'howe97examining'
p1329
sI1328
S'wang01supporting'
p1330
sI1329
S'wills01open'
p1331
sI1330
S'nwana99perspective'
p1332
sI1331
S'fegaras99voodoo'
p1333
sI1332
S'romer01smart'
p1334
sI1333
S'druin99designing'
p1335
sI1334
S'15156'
p1336
sI1335
S'fox99sentinel'
p1337
sI1336
S'popescul02towards'
p1338
sI1337
S'sterritt01soft'
p1339
sI1338
S'diao00toward'
p1340
sI1339
S'esposito00machine'
p1341
sI1340
S'khudanpur99maximum'
p1342
sI1341
S'decarolis00verbal'
p1343
sI1342
S'balke00applications'
p1344
sI1343
S'olson98probabilistic'
p1345
sI1344
S'chaudhri98okbc'
p1346
sI1345
S'322562'
p1347
sI1346
S'352769'
p1348
sI1347
S'baxter01dab'
p1349
sI1348
S'bonnet98partial'
p1350
sI1349
S'frank98generating'
p1351
sI1350
S'67522'
p1352
sI1351
S'ockerman98preliminary'
p1353
sI1352
S'525378'
p1354
sI1353
S'roth01scalable'
p1355
sI1354
S'grumbach00manipulating'
p1356
sI1355
S'78173'
p1357
sI1356
S'502274'
p1358
sI1357
S'fraternali98proceedings'
p1359
sI1358
S'457393'
p1360
sI1359
S'karlgren98iterative'
p1361
sI1360
S'kon00secure'
p1362
sI1361
S'441527'
p1363
sI1362
S'lienhart02localizing'
p1364
sI1363
S'cassell02mack'
p1365
sI1364
S'340855'
p1366
sI1365
S'298894'
p1367
sI1366
S'takahashi00location'
p1368
sI1367
S'303146'
p1369
sI1368
S'bandi98space'
p1370
sI1369
S'gallwitz98erlangen'
p1371
sI1370
S'koperski98mining'
p1372
sI1371
S'525119'
p1373
sI1372
S'marini00hemasl'
p1374
sI1373
S'mccallum00maximum'
p1375
sI1374
S'23217'
p1376
sI1375
S'sandholm01algorithm'
p1377
sI1376
S'kallmann99behavioral'
p1378
sI1377
S'wang99discovering'
p1379
sI1378
S'91978'
p1380
sI1379
S'ordonez01mining'
p1381
sI1380
S'ljungstrand00analysis'
p1382
sI1381
S'jantke95communications'
p1383
sI1382
S'jakobi98minimal'
p1384
sI1383
S'jennings99robust'
p1385
sI1384
S'kitano99robocup'
p1386
sI1385
S'wills00open'
p1387
sI1386
S'jantke97logical'
p1388
sI1387
S'horling99diagnosis'
p1389
sI1388
S'bernstein00vision'
p1390
sI1389
S'461789'
p1391
sI1390
S'fent00logical'
p1392
sI1391
S'gajos01design'
p1393
sI1392
S'chakrabarti98automatic'
p1394
sI1393
S'ciravegna00bringing'
p1395
sI1394
S'51542'
p1396
sI1395
S'gotoh00topicbased'
p1397
sI1396
S'carr01conceptual'
p1398
sI1397
S'yong01cooperative'
p1399
sI1398
S'267965'
p1400
sI1399
S'straccia01reasoning'
p1401
sI1400
S'chen00features'
p1402
sI1401
S'wicke99compiling'
p1403
sI1402
S'89879'
p1404
sI1403
S'wooldridge00computationally'
p1405
sI1404
S'nie01joint'
p1406
sI1405
S'filliat99incremental'
p1407
sI1406
S'bourdeau99three'
p1408
sI1407
S'kwok01scaling'
p1409
sI1408
S'scerri99ease'
p1410
sI1409
S'das98rule'
p1411
sI1410
S'glover02using'
p1412
sI1411
S'533789'
p1413
sI1412
S'507954'
p1414
sI1413
S'6729'
p1415
sI1414
S'yeates01memory'
p1416
sI1415
S'458630'
p1417
sI1416
S'fayyad98initialization'
p1418
sI1417
S'zheng98integrating'
p1419
sI1418
S'19017'
p1420
sI1419
S'drori01algorithm'
p1421
sI1420
S'overeinder02multiagent'
p1422
sI1421
S'33084'
p1423
sI1422
S'jain00comparison'
p1424
sI1423
S'340329'
p1425
sI1424
S'rauterberg97gesture'
p1426
sI1425
S'373513'
p1427
sI1426
S'22187'
p1428
sI1427
S'fox99gateway'
p1429
sI1428
S'cassell00nudge'
p1430
sI1429
S'goldberg00eigentaste'
p1431
sI1430
S'finn02genre'
p1432
sI1431
S'82903'
p1433
sI1432
S'377458'
p1434
sI1433
S'borchers00pattern'
p1435
sI1434
S'bolotov99clausal'
p1436
sI1435
S'graham00towards'
p1437
sI1436
S'flake02selforganization'
p1438
sI1437
S'baerentzen97learning'
p1439
sI1438
S'12060'
p1440
sI1439
S'huang00dialogue'
p1441
sI1440
S'pal02web'
p1442
sI1441
S'marques00going'
p1443
sI1442
S'urhan98costbased'
p1444
sI1443
S'hoadley99between'
p1445
sI1444
S'bentley99three'
p1446
sI1445
S'giunchiglia01tropos'
p1447
sI1446
S'schwab00learning'
p1448
sI1447
S'galhardas00extensible'
p1449
sI1448
S'goldberg99optimizing'
p1450
sI1449
S'flach00abduction'
p1451
sI1450
S'286829'
p1452
sI1451
S'johnson00affectively'
p1453
sI1452
S'82834'
p1454
sI1453
S'diaconescu99componentbased'
p1455
sI1454
S'539207'
p1456
sI1455
S'wang00concept'
p1457
sI1456
S'terveen99constructing'
p1458
sI1457
S'509763'
p1459
sI1458
S'320482'
p1460
sI1459
S'13423'
p1461
sI1460
S'pedersen99supporting'
p1462
sI1461
S'kang01qrtdb'
p1463
sI1462
S'deraedt98three'
p1464
sI1463
S'helvik01using'
p1465
sI1464
S'busi01some'
p1466
sI1465
S'paulson00inductive'
p1467
sI1466
S'molz00design'
p1468
sI1467
S'165504'
p1469
sI1468
S'accot97beyond'
p1470
sI1469
S'524967'
p1471
sI1470
S'445235'
p1472
sI1471
S'235466'
p1473
sI1472
S'57205'
p1474
sI1473
S'bieman01finding'
p1475
sI1474
S'krasnogor00memetic'
p1476
sI1475
S'506507'
p1477
sI1476
S'du97categorization'
p1478
sI1477
S'443686'
p1479
sI1478
S'smith01management'
p1480
sI1479
S'murray01specifying'
p1481
sI1480
S'hollerer99exploring'
p1482
sI1481
S'hellerstein98optimization'
p1483
sI1482
S'falk99bubblebadge'
p1484
sI1483
S'grasso99augmenting'
p1485
sI1484
S'brandt00task'
p1486
sI1485
S'tzouramanis99processing'
p1487
sI1486
S'cardie97improving'
p1488
sI1487
S'66638'
p1489
sI1488
S'plagianakos01tumor'
p1490
sI1489
S'aggarwal01intelligent'
p1491
sI1490
S'bass01glimpse'
p1492
sI1491
S'diao00comparative'
p1493
sI1492
S'198731'
p1494
sI1493
S'332262'
p1495
sI1494
S'stocky02conveying'
p1496
sI1495
S'497508'
p1497
sI1496
S'254597'
p1498
sI1497
S'brass99equivalence'
p1499
sI1498
S'manolescu01microworkflow'
p1500
sI1499
S'442794'
p1501
sI1500
S'538938'
p1502
sI1501
S'362156'
p1503
sI1502
S'goldstein00creating'
p1504
sI1503
S'yu01indexing'
p1505
sI1504
S'maynard01named'
p1506
sI1505
S'62580'
p1507
sI1506
S'487862'
p1508
sI1507
S'64225'
p1509
sI1508
S'ryu01application'
p1510
sI1509
S'302729'
p1511
sI1510
S'baron99voxelbased'
p1512
sI1511
S'pagonis99evolving'
p1513
sI1512
S'ordonez99discovering'
p1514
sI1513
S'uhrmacher00plug'
p1515
sI1514
S'bederson95pad'
p1516
sI1515
S'bryce99coordination'
p1517
sI1516
S'60728'
p1518
sI1517
S'hussain98attribute'
p1519
sI1518
S'dayal01business'
p1520
sI1519
S'mcbreen01evaluating'
p1521
sI1520
S'340534'
p1522
sI1521
S'devedzic01knowledge'
p1523
sI1522
S'480065'
p1524
sI1523
S'362539'
p1525
sI1524
S'li99multifaceted'
p1526
sI1525
S'schmidt01xml'
p1527
sI1526
S'huang00running'
p1528
sI1527
S'witten00building'
p1529
sI1528
S'437003'
p1530
sI1529
S'chen01detection'
p1531
sI1530
S'wetzel98semantic'
p1532
sI1531
S'bellatreche00what'
p1533
sI1532
S'roubos00compact'
p1534
sI1533
S'martinez99face'
p1535
sI1534
S'390217'
p1536
sI1535
S'merro01bisimulation'
p1537
sI1536
S'455679'
p1538
sI1537
S'lueg00information'
p1539
sI1538
S'howe97savvysearch'
p1540
sI1539
S'yokoo02secure'
p1541
sI1540
S'275630'
p1542
sI1541
S'michaud98learning'
p1543
sI1542
S'467320'
p1544
sI1543
S'307463'
p1545
sI1544
S'332050'
p1546
sI1545
S'506324'
p1547
sI1546
S'miller99genetic'
p1548
sI1547
S'ben-ameur02multiitem'
p1549
sI1548
S'chothia01distributed'
p1550
sI1549
S'weiss98answer'
p1551
sI1550
S'78547'
p1552
sI1551
S'florescu00integrating'
p1553
sI1552
S'67194'
p1554
sI1553
S'laviola99msvt'
p1555
sI1554
S'71059'
p1556
sI1555
S'lagoze01open'
p1557
sI1556
S'208646'
p1558
sI1557
S'marques01integrating'
p1559
sI1558
S'roddick99towards'
p1560
sI1559
S'531895'
p1561
sI1560
S'hatzilygeroudis02multiinference'
p1562
sI1561
S'friedman01multivariate'
p1563
sI1562
S'ragsdale00adaptation'
p1564
sI1563
S'munetomo99identifying'
p1565
sI1564
S'kosala00web'
p1566
sI1565
S'bahle02efficient'
p1567
sI1566
S'lawrence99text'
p1568
sI1567
S'baral00reasoning'
p1569
sI1568
S'degaris99building'
p1570
sI1569
S'bui99invariant'
p1571
sI1570
S'311786'
p1572
sI1571
S'meyer99automatic'
p1573
sI1572
S'502516'
p1574
sI1573
S'495550'
p1575
sI1574
S'bonner98logic'
p1576
sI1575
S'26655'
p1577
sI1576
S'154973'
p1578
sI1577
S'baader98matching'
p1579
sI1578
S'ghani01using'
p1580
sI1579
S'witten01power'
p1581
sI1580
S'421280'
p1582
sI1581
S'pouzol01from'
p1583
sI1582
S'levene00computing'
p1584
sI1583
S'mataric99making'
p1585
sI1584
S'glover99architecture'
p1586
sI1585
S'llirbat01filtering'
p1587
sI1586
S'behringer98improving'
p1588
sI1587
S'flamm01barrier'
p1589
sI1588
S'487737'
p1590
sI1589
S'tan01infocockpit'
p1591
sI1590
S'115410'
p1592
sI1591
S'garcke02classification'
p1593
sI1592
S'abiteboul01representing'
p1594
sI1593
S'kumar00adaptive'
p1595
sI1594
S'evans01itr'
p1596
sI1595
S'codish98widening'
p1597
sI1596
S'roth01relational'
p1598
sI1597
S'rocha00biologically'
p1599
sI1598
S'319242'
p1600
sI1599
S'norling01learning'
p1601
sI1600
S'gandon02multiagent'
p1602
sI1601
S'mazumdar99achieving'
p1603
sI1602
S'sturm00tableau'
p1604
sI1603
S'327456'
p1605
sI1604
S'escudero00boosting'
p1606
sI1605
S'31199'
p1607
sI1606
S'fertig99fuzzy'
p1608
sI1607
S'cox99model'
p1609
sI1608
S'sadri00abduction'
p1610
sI1609
S'du98vulnerability'
p1611
sI1610
S'he00comparative'
p1612
sI1611
S'278114'
p1613
sI1612
S'fegaras98new'
p1614
sI1613
S'bertino99enhancing'
p1615
sI1614
S'munroe00bbq'
p1616
sI1615
S'konrad99model'
p1617
sI1616
S'pitoura99scalable'
p1618
sI1617
S'agarwal01time'
p1619
sI1618
S'howell99gesture'
p1620
sI1619
S'19461'
p1621
sI1620
S'342407'
p1622
sI1621
S'19462'
p1623
sI1622
S'310437'
p1624
sI1623
S'iglesias99survey'
p1625
sI1624
S'jarke99architecture'
p1626
sI1625
S'ardissono96uso'
p1627
sI1626
S'vonhardenberg01barehand'
p1628
sI1627
S'tran00videograph'
p1629
sI1628
S'292223'
p1630
sI1629
S'232896'
p1631
sI1630
S'drori00using'
p1632
sI1631
S'morse00collablogger'
p1633
sI1632
S'nissen99repository'
p1634
sI1633
S'bauer01design'
p1635
sI1634
S'527452'
p1636
sI1635
S'dumais01optimizing'
p1637
sI1636
S'wagner97artificial'
p1638
sI1637
S'gomoluch01information'
p1639
sI1638
S'ardissono00plan'
p1640
sI1639
S'64765'
p1641
sI1640
S'zhang99situated'
p1642
sI1641
S'gullickson98using'
p1643
sI1642
S'joseph01why'
p1644
sI1643
S'346876'
p1645
sI1644
S'polani99fast'
p1646
sI1645
S'aroyo02layered'
p1647
sI1646
S'jr99identifying'
p1648
sI1647
S'zelikovitz00improving'
p1649
sI1648
S'damiani97structuring'
p1650
sI1649
S'527187'
p1651
sI1650
S'faber98representing'
p1652
sI1651
S'bonifati01pushing'
p1653
sI1652
S'zhou00implementation'
p1654
sI1653
S'nigam00analyzing'
p1655
sI1654
S'ghani01combining'
p1656
sI1655
S'vaidya02privacy'
p1657
sI1656
S'bauer99where'
p1658
sI1657
S'dewhurst98knowledge'
p1659
sI1658
S'452812'
p1660
sI1659
S'dwyer99flow'
p1661
sI1660
S'calvanese99unifying'
p1662
sI1661
S'16892'
p1663
sI1662
S'kim99compensatory'
p1664
sI1663
S'goasdoue00rewriting'
p1665
sI1664
S'chang99approximate'
p1666
sI1665
S'ferhatosmanoglu01approximate'
p1667
sI1666
S'devaney98needles'
p1668
sI1667
S'barve99modeling'
p1669
sI1668
S'501178'
p1670
sI1669
S'150449'
p1671
sI1670
S'297471'
p1672
sI1671
S'xia99comprehensive'
p1673
sI1672
S'dejong01multilayer'
p1674
sI1673
S'wang01agentoriented'
p1675
sI1674
S'brandt00antisocial'
p1676
sI1675
S'baker98survey'
p1677
sI1676
S'beuster00mia'
p1678
sI1677
S'441239'
p1679
sI1678
S'parsons98argumentation'
p1680
sI1679
S'choppy00control'
p1681
sI1680
S'dinverno97formal'
p1682
sI1681
S'tzouramanis00multiversion'
p1683
sI1682
S'scassellati99knowing'
p1684
sI1683
S'brin98anatomy'
p1685
sI1684
S'4799'
p1686
sI1685
S'becker99gripsee'
p1687
sI1686
S'corradi01policy'
p1688
sI1687
S'dreilinger96information'
p1689
sI1688
S'wiesmann99systematic'
p1690
sI1689
S'hollerer99situated'
p1691
sI1690
S'nigam99text'
p1692
sI1691
S'windhouwer01flexible'
p1693
sI1692
S'25225'
p1694
sI1693
S'fjeld99designing'
p1695
sI1694
S'claypool99combining'
p1696
sI1695
S'moreno96limited'
p1697
sI1696
S'freitas98pkdd'
p1698
sI1697
S'161260'
p1699
sI1698
S'kon00using'
p1700
sI1699
S'itti99comparison'
p1701
sI1700
S'marin01hybrid'
p1702
sI1701
S'184682'
p1703
sI1702
S'poggi00eye'
p1704
sI1703
S'kemme00new'
p1705
sI1704
S'winikoff01simplifying'
p1706
sI1705
S'140079'
p1707
sI1706
S'380343'
p1708
sI1707
S'rauber01integrating'
p1709
sI1708
S'242836'
p1710
sI1709
S'neumann99augmented'
p1711
sI1710
S'yang01pms'
p1712
sI1711
S'408262'
p1713
sI1712
S'454640'
p1714
sI1713
S'391515'
p1715
sI1714
S'499374'
p1716
sI1715
S'tice00key'
p1717
sI1716
S'nehaniv99constructive'
p1718
sI1717
S'162997'
p1719
sI1718
S'chomicki99animating'
p1720
sI1719
S'jonker99multiagent'
p1721
sI1720
S'fox98active'
p1722
sI1721
S'532227'
p1723
sI1722
S'billinghurst98wearable'
p1724
sI1723
S'dey01distributed'
p1725
sI1724
S'brusilovsky98adaptive'
p1726
sI1725
S'hellerstein00recognizing'
p1727
sI1726
S'196762'
p1728
sI1727
S'bederson00jazz'
p1729
sI1728
S'zaiane98discovering'
p1730
sI1729
S'fox98position'
p1731
sI1730
S'goodman01representation'
p1732
sI1731
S'20543'
p1733
sI1732
S'108573'
p1734
sI1733
S'443654'
p1735
sI1734
S'ordonez00discovering'
p1736
sI1735
S'243680'
p1737
sI1736
S'lempel01picashow'
p1738
sI1737
S'jennings00implementing'
p1739
sI1738
S'sim99learning'
p1740
sI1739
S'dicaro98antnet'
p1741
sI1740
S'8922'
p1742
sI1741
S'18832'
p1743
sI1742
S'bridge98defining'
p1744
sI1743
S'brass99computation'
p1745
sI1744
S'115390'
p1746
sI1745
S'murphy01bayes'
p1747
sI1746
S'85838'
p1748
sI1747
S'rosales00hand'
p1749
sI1748
S'447337'
p1750
sI1749
S'319653'
p1751
sI1750
S'li01indexing'
p1752
sI1751
S'globig95learning'
p1753
sI1752
S'zambonelli01organisational'
p1754
sI1753
S'ipeirotis01probe'
p1755
sI1754
S'122529'
p1756
sI1755
S'sloman01varieties'
p1757
sI1756
S'vogler99toward'
p1758
sI1757
S'collier99genia'
p1759
sI1758
S'rao94meansend'
p1760
sI1759
S'wu99firstorder'
p1761
sI1760
S'bharat99comparison'
p1762
sI1761
S'estlin98using'
p1763
sI1762
S'almeida01analyzing'
p1764
sI1763
S'384644'
p1765
sI1764
S'265990'
p1766
sI1765
S'larsen01probabilistic'
p1767
sI1766
S'appiani00multiagent'
p1768
sI1767
S'roubos00learning'
p1769
sI1768
S'basu01evaluating'
p1770
sI1769
S'440927'
p1771
sI1770
S'suryadi99learning'
p1772
sI1771
S'clark00location'
p1773
sI1772
S'89078'
p1774
sI1773
S'hayzelden99agent'
p1775
sI1774
S'fink99adaptable'
p1776
sI1775
S'su00whatnext'
p1777
sI1776
S'clark00finding'
p1778
sI1777
S'294630'
p1779
sI1778
S'aha98omnipresence'
p1780
sI1779
S'lim98extracting'
p1781
sI1780
S'yen01cast'
p1782
sI1781
S'456004'
p1783
sI1782
S'chang99automatic'
p1784
sI1783
S'demeer00programmable'
p1785
sI1784
S'chien00version'
p1786
sI1785
S'540018'
p1787
sI1786
S'208788'
p1788
sI1787
S'156949'
p1789
sI1788
S'zhu00incorporating'
p1790
sI1789
S'47700'
p1791
sI1790
S'449669'
p1792
sI1791
S'449668'
p1793
sI1792
S'339430'
p1794
sI1793
S'529138'
p1795
sI1794
S'prasad99learning'
p1796
sI1795
S'308770'
p1797
sI1796
S'gunn98support'
p1798
sI1797
S'22778'
p1799
sI1798
S'257148'
p1800
sI1799
S'suthers01collaborative'
p1801
sI1800
S'lovell98feature'
p1802
sI1801
S'doan99efficiently'
p1803
sI1802
S'eijk98informationpassing'
p1804
sI1803
S'bertelsen99augmenting'
p1805
sI1804
S'boll99emp'
p1806
sI1805
S'vdovjak01rdf'
p1807
sI1806
S'santini01query'
p1808
sI1807
S'dutech01multiagent'
p1809
sI1808
S'318212'
p1810
sI1809
S'mooney00contentbased'
p1811
sI1810
S'340342'
p1812
sI1811
S'itskevitch01automatic'
p1813
sI1812
S'kwok98automated'
p1814
sI1813
S'rosenthal01administering'
p1815
sI1814
S'bartoli02nonlinear'
p1816
sI1815
S'malis98positioning'
p1817
sI1816
S'abonyi02datadriven'
p1818
sI1817
S'nrvag98analytical'
p1819
sI1818
S'druin99role'
p1820
sI1819
S'higgins99integrated'
p1821
sI1820
S'374383'
p1822
sI1821
S'kagal01highly'
p1823
sI1822
S'meng99database'
p1824
sI1823
S'munzner95visualizing'
p1825
sI1824
S'lam99broadcast'
p1826
sI1825
S'pelikan99boa'
p1827
sI1826
S'meier01towards'
p1828
sI1827
S'24678'
p1829
sI1828
S'karnik99security'
p1830
sI1829
S'mladenic98turning'
p1831
sI1830
S'dotsch96good'
p1832
sI1831
S'huget02extending'
p1833
sI1832
S'wang00argumentationbased'
p1834
sI1833
S'erdem98task'
p1835
sI1834
S'25329'
p1836
sI1835
S'244548'
p1837
sI1836
S'omlin98equivalence'
p1838
sI1837
S'60236'
p1839
sI1838
S'485564'
p1840
sI1839
S'295735'
p1841
sI1840
S'460214'
p1842
sI1841
S'22140'
p1843
sI1842
S'labrou99interoperability'
p1844
sI1843
S'441654'
p1845
sI1844
S'482081'
p1846
sI1845
S'483730'
p1847
sI1846
S'olson99subpixel'
p1848
sI1847
S'gimbel01data'
p1849
sI1848
S'11510'
p1850
sI1849
S'prasad96cooperative'
p1851
sI1850
S'cox96introspective'
p1852
sI1851
S'235157'
p1853
sI1852
S'486097'
p1854
sI1853
S'fjeld99exploring'
p1855
sI1854
S'liu99olog'
p1856
sI1855
S'schaller99reclustering'
p1857
sI1856
S'eriksson98to'
p1858
sI1857
S'steel02finding'
p1859
sI1858
S'sakama99updating'
p1860
sI1859
S'502499'
p1861
sI1860
S'kaski98dimensionality'
p1862
sI1861
S'menczer02topicdriven'
p1863
sI1862
S'210930'
p1864
sI1863
S'130387'
p1865
sI1864
S'249633'
p1866
sI1865
S'bylund99coordinating'
p1867
sI1866
S'382301'
p1868
sI1867
S'wolf00expert'
p1869
sI1868
S'498960'
p1870
sI1869
S'dreilinger97experiences'
p1871
sI1870
S'martelli99logic'
p1872
sI1871
S'124833'
p1873
sI1872
S'punyakanok01use'
p1874
sI1873
S'germans01virpi'
p1875
sI1874
S'412974'
p1876
sI1875
S'weiss98learning'
p1877
sI1876
S'biskup00decomposition'
p1878
sI1877
S'jansen00mobile'
p1879
sI1878
S'46363'
p1880
sI1879
S'haritsa00realtime'
p1881
sI1880
S'bruckner01managing'
p1882
sI1881
S'wolter00spatiotemporal'
p1883
sI1882
S'38848'
p1884
sI1883
S'mao01adaptivefp'
p1885
sI1884
S'518092'
p1886
sI1885
S'chung01dynamic'
p1887
sI1886
S'496736'
p1888
sI1887
S'518526'
p1889
sI1888
S'ives00adaptive'
p1890
sI1889
S'mann01validating'
p1891
sI1890
S'clarkson00recognizing'
p1892
sI1891
S'45542'
p1893
sI1892
S'benitez98using'
p1894
sI1893
S'oria99visualmoql'
p1895
sI1894
S'bergamaschi99semantic'
p1896
sI1895
S'kortuem99close'
p1897
sI1896
S'aron99efficient'
p1898
sI1897
S'pazzani00representation'
p1899
sI1898
S'459109'
p1900
sI1899
S'hermansky99temporal'
p1901
sI1900
S'klinkenberg00detecting'
p1902
sI1901
S'freitag99information'
p1903
sI1902
S'454077'
p1904
sI1903
S'bruni01two'
p1905
sI1904
S'149759'
p1906
sI1905
S'abonyi01modified'
p1907
sI1906
S'409610'
p1908
sI1907
S'prentzas02webbased'
p1909
sI1908
S'73962'
p1910
sI1909
S'liebig99event'
p1911
sI1910
S'lesh99using'
p1912
sI1911
S'efe00shape'
p1913
sI1912
S'lim00comparison'
p1914
sI1913
S'pohl99machine'
p1915
sI1914
S'moghaddam98beyond'
p1916
sI1915
S'artale00expressivity'
p1917
sI1916
S'eidenbenz00atomi'
p1918
sI1917
S'bates98using'
p1919
sI1918
S'advani99integrating'
p1920
sI1919
S'thomas00creating'
p1921
sI1920
S'531526'
p1922
sI1921
S'sarawagi98discoverydriven'
p1923
sI1922
S'zhang01pvm'
p1924
sI1923
S'broersen00leveled'
p1925
sI1924
S'meng99estimating'
p1926
sI1925
S'marchiori98simple'
p1927
sI1926
S'amitay98using'
p1928
sI1927
S'202938'
p1929
sI1928
S'maurer00second'
p1930
sI1929
S'jacob99software'
p1931
sI1930
S'cai01geovibe'
p1932
sI1931
S'zavrel00information'
p1933
sI1932
S'hoste00rule'
p1934
sI1933
S'theilmann99disseminating'
p1935
sI1934
S'sawhney99nomadic'
p1936
sI1935
S'navarro00adding'
p1937
sI1936
S'bohlin00path'
p1938
sI1937
S'zamir99grouper'
p1939
sI1938
S'346939'
p1940
sI1939
S'baralis00algebraic'
p1941
sI1940
S'mertz00influence'
p1942
sI1941
S'jennings95controlling'
p1943
sI1942
S'snyders00confseek'
p1944
sI1943
S'453602'
p1945
sI1944
S'liu98face'
p1946
sI1945
S'stockinger01towards'
p1947
sI1946
S'craven98learning'
p1948
sI1947
S'casillas01different'
p1949
sI1948
S'45929'
p1950
sI1949
S'konrad98model'
p1951
sI1950
S'liu99face'
p1952
sI1951
S'471293'
p1953
sI1952
S'santos99dynamic'
p1954
sI1953
S'marmasse99commotion'
p1955
sI1954
S'536996'
p1956
sI1955
S'manmatha01modeling'
p1957
sI1956
S'252229'
p1958
sI1957
S'pelillo99continuousbased'
p1959
sI1958
S'bonchi01data'
p1960
sI1959
S'galanis01following'
p1961
sI1960
S'395537'
p1962
sI1961
S'425424'
p1963
sI1962
S'tourapis01advanced'
p1964
sI1963
S'bartolini01feedbackbypass'
p1965
sI1964
S'jonsson00planning'
p1966
sI1965
S'goller99feature'
p1967
sI1966
S'132577'
p1968
sI1967
S'sarwar01itembased'
p1969
sI1968
S'bruyninckx00autonomous'
p1970
sI1969
S'490051'
p1971
sI1970
S'375424'
p1972
sI1971
S'pavlovic96gestural'
p1973
sI1972
S'gouveia98technological'
p1974
sI1973
S'popescul01probabilistic'
p1975
sI1974
S'dhillon01coclustering'
p1976
sI1975
S'ginsburg98annotate'
p1977
sI1976
S'herlea01secure'
p1978
sI1977
S'queloz99foreign'
p1979
sI1978
S'arleo99neuromimetic'
p1980
sI1979
S'jantke97necessity'
p1981
sI1980
S'hermsdorf98webadapter'
p1982
sI1981
S'granger02multiscale'
p1983
sI1982
S'critchlow98automatic'
p1984
sI1983
S'yu99efficient'
p1985
sI1984
S'chen00websail'
p1986
sI1985
S'nicola99increasing'
p1987
sI1986
S'paris00common'
p1988
sI1987
S'shah99amdb'
p1989
sI1988
S'88449'
p1990
sI1989
S'36645'
p1991
sI1990
S'timm01from'
p1992
sI1991
S'282608'
p1993
sI1992
S'athnes00human'
p1994
sI1993
S'iksal01revisiting'
p1995
sI1994
S'norman97motivationbased'
p1996
sI1995
S'15340'
p1997
sI1996
S'klein99computer'
p1998
sI1997
S'godfrey97minimization'
p1999
sI1998
S'vardy99wristcam'
p2000
sI1999
S'sycara98context'
p2001
sI2000
S'thies02searching'
p2002
sI2001
S'351802'
p2003
sI2002
S'521000'
p2004
sI2003
S'boloni99multiplane'
p2005
sI2004
S'liu00implementation'
p2006
sI2005
S'hannebauer99composable'
p2007
sI2006
S'453469'
p2008
sI2007
S'moon00scalable'
p2009
sI2008
S'zhu98line'
p2010
sI2009
S'clarke01exploiting'
p2011
sI2010
S'brazier02agent'
p2012
sI2011
S'eliassi-rad00instructable'
p2013
sI2012
S'47625'
p2014
sI2013
S'piekarski99architecture'
p2015
sI2014
S'carver00methodology'
p2016
sI2015
S'fensel98ontobroker'
p2017
sI2016
S'1529'
p2018
sI2017
S'shavlik98building'
p2019
sI2018
S'19199'
p2020
sI2019
S'kollios99nearest'
p2021
sI2020
S'papadias99constraintbase'
p2022
sI2021
S'74980'
p2023
sI2022
S'bertino99approach'
p2024
sI2023
S'przymusinski98autoepistemic'
p2025
sI2024
S'oviatt99ten'
p2026
sI2025
S'labrou01standardizing'
p2027
sI2026
S'wooldridge96practical'
p2028
sI2027
S'496883'
p2029
sI2028
S'472493'
p2030
sI2029
S'decker01multiagent'
p2031
sI2030
S'reijers01requirements'
p2032
sI2031
S'hattori99socialware'
p2033
sI2032
S'ando03mostlyunsupervised'
p2034
sI2033
S'roobaert99viewbased'
p2035
sI2034
S'126894'
p2036
sI2035
S'rhodes99wearable'
p2037
sI2036
S'shneiderman00direct'
p2038
sI2037
S'mcgovern01automatic'
p2039
sI2038
S'jamil00gql'
p2040
sI2039
S'zhang01personalized'
p2041
sI2040
S'benetti01sidesigner'
p2042
sI2041
S'weber01textual'
p2043
sI2042
S'inoue99computing'
p2044
sI2043
S'150514'
p2045
sI2044
S'ehlert01intelligent'
p2046
sI2045
S'cassell00more'
p2047
sI2046
S'roman00legorb'
p2048
sI2047
S'hayden99architectural'
p2049
sI2048
S'fuhr01digital'
p2050
sI2049
S'ponnekanti01icrafter'
p2051
sI2050
S'wooldridge96logic'
p2052
sI2051
S'cantu-paz00combining'
p2053
sI2052
S'triesch98gesture'
p2054
sI2053
S'crabtree98wearable'
p2055
sI2054
S'gaizauskas98information'
p2056
sI2055
S'christina99detecting'
p2057
sI2056
S'dantsin99complexity'
p2058
sI2057
S'oliboni01temporal'
p2059
sI2058
S'okamoto02supporting'
p2060
sI2059
S'448928'
p2061
sI2060
S'krink00parameter'
p2062
sI2061
S'pollack99adjustable'
p2063
sI2062
S'hunter00merging'
p2064
sI2063
S'537920'
p2065
sI2064
S'3602'
p2066
sI2065
S'510434'
p2067
sI2066
S'chu-carroll99conflict'
p2068
sI2067
S'resnik99mining'
p2069
sI2068
S'sandholm01side'
p2070
sI2069
S'yu99finding'
p2071
sI2070
S'emmerich00software'
p2072
sI2071
S'minar99cooperating'
p2073
sI2072
S'hunter98ramification'
p2074
sI2073
S'feder00computing'
p2075
sI2074
S'412941'
p2076
sI2075
S'coellocoello99updated'
p2077
sI2076
S'williamson00foundations'
p2078
sI2077
S'sloman02how'
p2079
sI2078
S'114630'
p2080
sI2079
S'32746'
p2081
sI2080
S'32742'
p2082
sI2081
S'tzitzikas01democratic'
p2083
sI2082
S'vandertorre01contextual'
p2084
sI2083
S'540061'
p2085
sI2084
S'papadias01indexing'
p2086
sI2085
S'deraedt01three'
p2087
sI2086
S'brown99active'
p2088
sI2087
S'parthasarathy01tackling'
p2089
sI2088
S'227347'
p2090
sI2089
S'488525'
p2091
sI2090
S'9105'
p2092
sI2091
S'499517'
p2093
sI2092
S'norrie02webbased'
p2094
sI2093
S'logan00distributed'
p2095
sI2094
S'464421'
p2096
sI2095
S'peters02using'
p2097
sI2096
S'1894'
p2098
sI2097
S'leuschel98creating'
p2099
sI2098
S'13839'
p2100
sI2099
S'ware00reaching'
p2101
sI2100
S'liu99deductive'
p2102
sI2101
S'bailey95active'
p2103
sI2102
S'thompson99active'
p2104
sI2103
S'michaud99managing'
p2105
sI2104
S'454034'
p2106
sI2105
S'cohen00learning'
p2107
sI2106
S'petrak95objectoriented'
p2108
sI2107
S'isokoski01model'
p2109
sI2108
S'knowles99evolutionary'
p2110
sI2109
S'488749'
p2111
sI2110
S'su00prediction'
p2112
sI2111
S'gouveira98feasibility'
p2113
sI2112
S'sadri99abduction'
p2114
sI2113
S'turney99learning'
p2115
sI2114
S'schmitt98relating'
p2116
sI2115
S'539185'
p2117
sI2116
S'younes00calibrating'
p2118
sI2117
S'vanlaerhoven01combining'
p2119
sI2118
S'106003'
p2120
sI2119
S'griffiths95concept'
p2121
sI2120
S'491166'
p2122
sI2121
S'440239'
p2123
sI2122
S'201909'
p2124
sI2123
S'lueg98supporting'
p2125
sI2124
S'grieser00unifying'
p2126
sI2125
S'54866'
p2127
sI2126
S'vazov01system'
p2128
sI2127
S'jenkins00primitivebased'
p2129
sI2128
S'ambroszkiewicz98team'
p2130
sI2129
S'12369'
p2131
sI2130
S'94069'
p2132
sI2131
S'4588'
p2133
sI2132
S'consortium00corporate'
p2134
sI2133
S'kutulakos96affine'
p2135
sI2134
S'458208'
p2136
sI2135
S'524920'
p2137
sI2136
S'367226'
p2138
sI2137
S'siddiqi98shock'
p2139
sI2138
S'ceska01generating'
p2140
sI2139
S'42875'
p2141
sI2140
S'litman99empirically'
p2142
sI2141
S'hsu02genetic'
p2143
sI2142
S'317766'
p2144
sI2143
S'mistry01materialized'
p2145
sI2144
S'shehory99feasible'
p2146
sI2145
S'singletary01symbiotic'
p2147
sI2146
S'panayiotopoulos98intelligent'
p2148
sI2147
S'luyten01xmlbased'
p2149
sI2148
S'304865'
p2150
sI2149
S'285081'
p2151
sI2150
S'killijian01towards'
p2152
sI2151
S'brass98semantics'
p2153
sI2152
S'orovas00cellular'
p2154
sI2153
S'choi00randomized'
p2155
sI2154
S'ng98reconfiguring'
p2156
sI2155
S'ram90incremental'
p2157
sI2156
S'lerman00coalition'
p2158
sI2157
S'baker01heuristic'
p2159
sI2158
S'232607'
p2160
sI2159
S'prendinger00hyper'
p2161
sI2160
S'sturm00firstorder'
p2162
sI2161
S'marmasse00locationaware'
p2163
sI2162
S'itti98model'
p2164
sI2163
S'lam01broadcasting'
p2165
sI2164
S'226296'
p2166
sI2165
S'franconi00icom'
p2167
sI2166
S'299008'
p2168
sI2167
S'467998'
p2169
sI2168
S'auer00hybrid'
p2170
sI2169
S'fan01splitting'
p2171
sI2170
S'oard01evaluating'
p2172
sI2171
S'bredin99economic'
p2173
sI2172
S'sloman98damasio'
p2174
sI2173
S'setiono99mapping'
p2175
sI2174
S'frank99naive'
p2176
sI2175
S'269982'
p2177
sI2176
S'wactlar00informedia'
p2178
sI2177
S'zhang01maximum'
p2179
sI2178
S'291240'
p2180
sI2179
S'norman00argument'
p2181
sI2180
S'kaljuvee01efficient'
p2182
sI2181
S'329890'
p2183
sI2182
S'41721'
p2184
sI2183
S'beimel99oneway'
p2185
sI2184
S'madhavan01generic'
p2186
sI2185
S'35997'
p2187
sI2186
S'ho01economic'
p2188
sI2187
S'roth00snowbased'
p2189
sI2188
S'chang98global'
p2190
sI2189
S'whittaker00jotmail'
p2191
sI2190
S'28031'
p2192
sI2191
S'kobsa99adapting'
p2193
sI2192
S'rennie01improving'
p2194
sI2193
S'454876'
p2195
sI2194
S'labrou99agent'
p2196
sI2195
S'miagkikh99generalized'
p2197
sI2196
S'svidzinska01world'
p2198
sI2197
S'416413'
p2199
sI2198
S'263737'
p2200
sI2199
S'sahin98visual'
p2201
sI2200
S'332626'
p2202
sI2201
S'375253'
p2203
sI2202
S'wang99hierarchical'
p2204
sI2203
S'myers97amulet'
p2205
sI2204
S'502491'
p2206
sI2205
S'537064'
p2207
sI2206
S'461740'
p2208
sI2207
S'coppin01reality'
p2209
sI2208
S'308750'
p2210
sI2209
S'czajkowski98jres'
p2211
sI2210
S'eiter00difference'
p2212
sI2211
S'myers98brief'
p2213
sI2212
S'starner98realtime'
p2214
sI2213
S'pfoser00novel'
p2215
sI2214
S'vilalta01rule'
p2216
sI2215
S'34099'
p2217
sI2216
S'chakrabarti98scalable'
p2218
sI2217
S'shanmugasundaram99efficient'
p2219
sI2218
S'526689'
p2220
sI2219
S'76283'
p2221
sI2220
S'503542'
p2222
sI2221
S'kang00visualization'
p2223
sI2222
S'goldstein99automatic'
p2224
sI2223
S'lyons00guided'
p2225
sI2224
S'stanoi99decentralized'
p2226
sI2225
S'420411'
p2227
sI2226
S'balch94communication'
p2228
sI2227
S'330661'
p2229
sI2228
S'475504'
p2230
sI2229
S'ding01probabilistic'
p2231
sI2230
S'tsap01feedback'
p2232
sI2231
S'nrvg99persistent'
p2233
sI2232
S'sutton93online'
p2234
sI2233
S'martin99embedding'
p2235
sI2234
S'452225'
p2236
sI2235
S'padgett98simple'
p2237
sI2236
S'119642'
p2238
sI2237
S'471747'
p2239
sI2238
S'32409'
p2240
sI2239
S'525666'
p2241
sI2240
S'mitra01data'
p2242
sI2241
S'hightower01realtime'
p2243
sI2242
S'mertz00pushing'
p2244
sI2243
S'cohn01qualitative'
p2245
sI2244
S'61706'
p2246
sI2245
S'andre99integrating'
p2247
sI2246
S'calvanese01description'
p2248
sI2247
S'449513'
p2249
sI2248
S'pfister98room'
p2250
sI2249
S'340027'
p2251
sI2250
S'srinivasan02target'
p2252
sI2251
S'dempski99augmented'
p2253
sI2252
S'prasad96offline'
p2254
sI2253
S'schapire98boosting'
p2255
sI2254
S'329899'
p2256
sI2255
S'huang01programmability'
p2257
sI2256
S'mundell99towards'
p2258
sI2257
S'sistla98querying'
p2259
sI2258
S'wang00experience'
p2260
sI2259
S'marsic01adaptive'
p2261
sI2260
S'xu98neural'
p2262
sI2261
S'ferguson95role'
p2263
sI2262
S'32197'
p2264
sI2263
S'75800'
p2265
sI2264
S'livingston01closing'
p2266
sI2265
S'schmalstieg99using'
p2267
sI2266
S'373023'
p2268
sI2267
S'315336'
p2269
sI2268
S'cantu-paz00using'
p2270
sI2269
S'sima00computational'
p2271
sI2270
S'142848'
p2272
sI2271
S'decker95environment'
p2273
sI2272
S'kopp00knowledgebased'
p2274
sI2273
S'williamson00approximating'
p2275
sI2274
S'brown01switch'
p2276
sI2275
S'lau99programming'
p2277
sI2276
S'maloof99machine'
p2278
sI2277
S'jaimes00integrating'
p2279
sI2278
S'443805'
p2280
sI2279
S'huffman94instructable'
p2281
sI2280
S'1639'
p2282
sI2281
S'chiu99meta'
p2283
sI2282
S'beneventano00information'
p2284
sI2283
S'denti99from'
p2285
sI2284
S'21158'
p2286
sI2285
S'chakrabarti01integrating'
p2287
sI2286
S'tourapis01temporal'
p2288
sI2287
S'streitz01roomware'
p2289
sI2288
S'michaud99representation'
p2290
sI2289
S'192612'
p2291
sI2290
S'ferhatosmanoglu01constrained'
p2292
sI2291
S'90507'
p2293
sI2292
S'ardissono01tailoring'
p2294
sI2293
S'santos97introductory'
p2295
sI2294
S'yang00temporal'
p2296
sI2295
S'940'
p2297
sI2296
S'ester00dctree'
p2298
sI2297
S'defago00totally'
p2299
sI2298
S'101570'
p2300
sI2299
S'dumas98handling'
p2301
sI2300
S'537667'
p2302
sI2301
S'lawrence99searching'
p2303
sI2302
S'thomas98wearable'
p2304
sI2303
S'539420'
p2305
sI2304
S'oliver98statistical'
p2306
sI2305
S'han99automated'
p2307
sI2306
S'choi01probabilistic'
p2308
sI2307
S'116087'
p2309
sI2308
S'164846'
p2310
sI2309
S'520300'
p2311
sI2310
S'casillas00improving'
p2312
sI2311
S'evers00jacob'
p2313
sI2312
S'palacz99isomorphism'
p2314
sI2313
S'464721'
p2315
sI2314
S'cardie99integrating'
p2316
sI2315
S'38463'
p2317
sI2316
S'457569'
p2318
sI2317
S'535578'
p2319
sI2318
S'rocha99syntactic'
p2320
sI2319
S'pinheirodasilva00user'
p2321
sI2320
S'eiter00extension'
p2322
sI2321
S'myers96easily'
p2323
sI2322
S'9683'
p2324
sI2323
S'147739'
p2325
sI2324
S'burnett01forms'
p2326
sI2325
S'418446'
p2327
sI2326
S'alberto00pattern'
p2328
sI2327
S'xu00maintaining'
p2329
sI2328
S'scime01websifter'
p2330
sI2329
S'castillo99gpropii'
p2331
sI2330
S'layzell98new'
p2332
sI2331
S'nodine98overview'
p2333
sI2332
S'pouwelse99feasible'
p2334
sI2333
S'30237'
p2335
sI2334
S'ambite00flexible'
p2336
sI2335
S'carro99concurrency'
p2337
sI2336
S'bollacker98citeseer'
p2338
sI2337
S'liu00learning'
p2339
sI2338
S'buyukkokten99exploiting'
p2340
sI2339
S'self01design'
p2341
sI2340
S'530008'
p2342
sI2341
S'huget02desiderata'
p2343
sI2342
S'443668'
p2344
sI2343
S'abello99maximum'
p2345
sI2344
S'dumas99sequencebased'
p2346
sI2345
S'sen98individual'
p2347
sI2346
S'137638'
p2348
sI2347
S'lau99privacy'
p2349
sI2348
S'lam99feature'
p2350
sI2349
S'538247'
p2351
sI2350
S'thevenin99adaptation'
p2352
sI2351
S'yagiura99variable'
p2353
sI2352
S'232670'
p2354
sI2353
S'zheng98stochastic'
p2355
sI2354
S'lomuscio96qlb'
p2356
sI2355
S'goldberg99genetic'
p2357
sI2356
S'liechti99nonobtrusive'
p2358
sI2357
S'benzaken98static'
p2359
sI2358
S'amiri00highly'
p2360
sI2359
S'chiueh99charm'
p2361
sI2360
S'536952'
p2362
sI2361
S'coetzee00feature'
p2363
sI2362
S'neumann99constructing'
p2364
sI2363
S'holtman98automatic'
p2365
sI2364
S'roumeliotis99circumventing'
p2366
sI2365
S'wang00using'
p2367
sI2366
S'watson99embodied'
p2368
sI2367
S'marsh00maintaining'
p2369
sI2368
S'lin02discovering'
p2370
sI2369
S'445880'
p2371
sI2370
S'rao96agentspeakl'
p2372
sI2371
S'cohen98joins'
p2373
sI2372
S'243827'
p2374
sI2373
S'94992'
p2375
sI2374
S'8204'
p2376
sI2375
S'chien01efficient'
p2377
sI2376
S'34341'
p2378
sI2377
S'obst01specifying'
p2379
sI2378
S'186486'
p2380
sI2379
S'bilgic97system'
p2381
sI2380
S'orovas98cellular'
p2382
sI2381
S'levene99justification'
p2383
sI2382
S'fegaras98query'
p2384
sI2383
S'smith00conversation'
p2385
sI2384
S'hirai99webbase'
p2386
sI2385
S'park99costbased'
p2387
sI2386
S'puliafito00map'
p2388
sI2387
S'casati01improving'
p2389
sI2388
S'197022'
p2390
sI2389
S'wuwongse01xml'
p2391
sI2390
S'della99internet'
p2392
sI2391
S'finn01fact'
p2393
sI2392
S'phan01scalable'
p2394
sI2393
S'palen99social'
p2395
sI2394
S'starner00gesture'
p2396
sI2395
S'kusiak01galgorithm'
p2397
sI2396
S'tomsich01optimizing'
p2398
sI2397
S'nahm02text'
p2399
sI2398
S'242172'
p2400
sI2399
S'fernandes00combining'
p2401
sI2400
S'moreno97how'
p2402
sI2401
S'stonebraker01content'
p2403
sI2402
S'kruschwitz00extracting'
p2404
sI2403
S'40513'
p2405
sI2404
S'brown98iadea'
p2406
sI2405
S'gellersen00adding'
p2407
sI2406
S'wu01towards'
p2408
sI2407
S'white98towards'
p2409
sI2408
S'sintek01using'
p2410
sI2409
S'159727'
p2411
sI2410
S'444471'
p2412
sI2411
S'denti00luce'
p2413
sI2412
S'ghani00data'
p2414
sI2413
S'hayashi00comparison'
p2415
sI2414
S'bonnet99query'
p2416
sI2415
S'5541'
p2417
sI2416
S'schmalstieg00bridging'
p2418
sI2417
S'lin02acird'
p2419
sI2418
S'chan99possible'
p2420
sI2419
S'luo02hybrid'
p2421
sI2420
S'bailey02eventconditionaction'
p2422
sI2421
S'wolski00design'
p2423
sI2422
S'531878'
p2424
sI2423
S'ware96evaluating'
p2425
sI2424
S'sloman99building'
p2426
sI2425
S'28315'
p2427
sI2426
S'patterson02context'
p2428
sI2427
S'scassellati98building'
p2429
sI2428
S'vanzwol99searching'
p2430
sI2429
S'wilensky00digital'
p2431
sI2430
S'howell98learning'
p2432
sI2431
S'ezeife01selecting'
p2433
sI2432
S'kalfoglou01integration'
p2434
sI2433
S'gal01managing'
p2435
sI2434
S'pinheirodasilva00generating'
p2436
sI2435
S'oliver98graphical'
p2437
sI2436
S'potter01heterogeneity'
p2438
sI2437
S'bird01olac'
p2439
sI2438
S'kakas01abduction'
p2440
sI2439
S'190915'
p2441
sI2440
S'115971'
p2442
sI2441
S'537127'
p2443
sI2442
S'4664'
p2444
sI2443
S'delgado99multiagent'
p2445
sI2444
S'chirkova00linearly'
p2446
sI2445
S'32215'
p2447
sI2446
S'coppin00eventscope'
p2448
sI2447
S'492133'
p2449
sI2448
S'nehaniv99meaning'
p2450
sI2449
S'li98automatic'
p2451
sI2450
S'140169'
p2452
sI2451
S'263968'
p2453
sI2452
S'533604'
p2454
sI2453
S'475405'
p2455
sI2454
S'482071'
p2456
sI2455
S'43702'
p2457
sI2456
S'minar99hive'
p2458
sI2457
S'239748'
p2459
sI2458
S'robbert01astrolabe'
p2460
sI2459
S'526525'
p2461
sI2460
S'yim00architecturecentric'
p2462
sI2461
S'ganti98clustering'
p2463
sI2462
S'493671'
p2464
sI2463
S'maneewongvatana99analysis'
p2465
sI2464
S'448769'
p2466
sI2465
S'64654'
p2467
sI2466
S'neti00perceptual'
p2468
sI2467
S'surmann00five'
p2469
sI2468
S'arampatzis00term'
p2470
sI2469
S'muslea99hierarchical'
p2471
sI2470
S'bennett00combinations'
p2472
sI2471
S'stone98layered'
p2473
sI2472
S'460667'
p2474
sI2473
S'gratch00emile'
p2475
sI2474
S'119409'
p2476
sI2475
S'thrun98framework'
p2477
sI2476
S'363813'
p2478
sI2477
S'stanoi98weak'
p2479
sI2478
S'breazeal98regulating'
p2480
sI2479
S'lamma99strategies'
p2481
sI2480
S'bohte00current'
p2482
sI2481
S'lee99unifying'
p2483
sI2482
S'bauer00programming'
p2484
sI2483
S'liu99overview'
p2485
sI2484
S'wu00selfsupervised'
p2486
sI2485
S'201850'
p2487
sI2486
S'helmer01automated'
p2488
sI2487
S'dhillon01concept'
p2489
sI2488
S'309072'
p2490
sI2489
S'casillas00methodology'
p2491
sI2490
S'sun99optional'
p2492
sI2491
S'bergamaschi99intelligent'
p2493
sI2492
S'najork01breadthfirst'
p2494
sI2493
S'abdennadher00experimental'
p2495
sI2494
S'pant02exploration'
p2496
sI2495
S'chang98data'
p2497
sI2496
S'200188'
p2498
sI2497
S'441105'
p2499
sI2498
S'488171'
p2500
sI2499
S'koch00integrating'
p2501
sI2500
S'takahashi98mobile'
p2502
sI2501
S'chen99introducing'
p2503
sI2502
S'104045'
p2504
sI2503
S'surmann01learning'
p2505
sI2504
S'bertelsen99dynamics'
p2506
sI2505
S'11708'
p2507
sI2506
S'smola98from'
p2508
sI2507
S'plaisant99design'
p2509
sI2508
S'bellavista01how'
p2510
sI2509
S'schndelbach01augurscope'
p2511
sI2510
S'494121'
p2512
sI2511
S'marsh00using'
p2513
sI2512
S'mann02testing'
p2514
sI2513
S'270469'
p2515
sI2514
S'505987'
p2516
sI2515
S'ashri00paradigma'
p2517
sI2516
S'urhan01dynamic'
p2518
sI2517
S'weber00unsupervised'
p2519
sI2518
S'454519'
p2520
sI2519
S'degaris00simulating'
p2521
sI2520
S'423028'
p2522
sI2521
S'claypool99ounce'
p2523
sI2522
S'504568'
p2524
sI2523
S'70288'
p2525
sI2524
S'400733'
p2526
sI2525
S'grandi00generalized'
p2527
sI2526
S'dey99conference'
p2528
sI2527
S'locatelli00simulated'
p2529
sI2528
S'kim00heterogeneous'
p2530
sI2529
S'kononenko95induction'
p2531
sI2530
S'junker98learning'
p2532
sI2531
S'iglezakis00towards'
p2533
sI2532
S'90208'
p2534
sI2533
S'arleo00spatial'
p2535
sI2534
S'buffet02adaptive'
p2536
sI2535
S'haynes96learning'
p2537
sI2536
S'buckinghamshum00scholonto'
p2538
sI2537
S'wooldridge02model'
p2539
sI2538
S'70265'
p2540
sI2539
S'kotz99mobile'
p2541
sI2540
S'513722'
p2542
sI2541
S'blum01learning'
p2543
sI2542
S'kumar01behaviorbased'
p2544
sI2543
S'ljungstrand99wearboy'
p2545
sI2544
S'randell00shopping'
p2546
sI2545
S'arai01multiagent'
p2547
sI2546
S'475379'
p2548
sI2547
S'li00automatic'
p2549
sI2548
S'cardie93using'
p2550
sI2549
S'455336'
p2551
sI2550
S'handschuh02authoring'
p2552
sI2551
S'kostiadis99multithreaded'
p2553
sI2552
S'509693'
p2554
sI2553
S'dwork01rank'
p2555
sI2554
S'tews02gday'
p2556
sI2555
S'nahm01mining'
p2557
sI2556
S'parsons99approach'
p2558
sI2557
S'cicirello01ant'
p2559
sI2558
S'4495'
p2560
sI2559
S'subramanian98costbased'
p2561
sI2560
S'greenwald01autonomous'
p2562
sI2561
S'argamon98routing'
p2563
sI2562
S'feiner99wearing'
p2564
sI2563
S'roy01toward'
p2565
sI2564
S'buyukkokten00seeing'
p2566
sI2565
S'degiacomo99incremental'
p2567
sI2566
S'abiteboul98logical'
p2568
sI2567
S'hespanha99multipleagent'
p2569
sI2568
S'bilgic97risk'
p2570
sI2569
S'wang99ssuptree'
p2571
sI2570
S'ultis01adaboost'
p2572
sI2571
S'87014'
p2573
sI2572
S'warshaw01facilitating'
p2574
sI2573
S'sandholm01cabob'
p2575
sI2574
S'vaneijk01generalised'
p2576
sI2575
S'cummins99language'
p2577
sI2576
S'wang98quasistable'
p2578
sI2577
S'63224'
p2579
sI2578
S'415056'
p2580
sI2579
S'83259'
p2581
sI2580
S'marques01providing'
p2582
sI2581
S'bagnell01autonomous'
p2583
sI2582
S'li98adome'
p2584
sI2583
S'flake00efficient'
p2585
sI2584
S'364516'
p2586
sI2585
S'446538'
p2587
sI2586
S'meretakis00scalable'
p2588
sI2587
S'prokopenko00cyberoos'
p2589
sI2588
S'riedel98active'
p2590
sI2589
S'40032'
p2591
sI2590
S'477302'
p2592
sI2591
S'chien01ecient'
p2593
sI2592
S'smeaton97relevance'
p2594
sI2593
S'hetzler98multifaceted'
p2595
sI2594
S'glover01improving'
p2596
sI2595
S'37804'
p2597
sI2596
S'tzouramanis00overlapping'
p2598
sI2597
S'cavedon95logical'
p2599
sI2598
S'433736'
p2600
sI2599
S'11099'
p2601
sI2600
S'zamir98web'
p2602
sI2601
S'pavlovic97visual'
p2603
sI2602
S'51036'
p2604
sI2603
S'terrillon98automatic'
p2605
sI2604
S'precup01offpolicy'
p2606
sI2605
S'kreuziger92application'
p2607
sI2606
S'defalco98optimizing'
p2608
sI2607
S'sarkar01applying'
p2609
sI2608
S'hatzilygeroudis01hymes'
p2610
sI2609
S'uhrmacher00modeling'
p2611
sI2610
S'bassiliades00edevice'
p2612
sI2611
S'529793'
p2613
sI2612
S'tabuada01feasible'
p2614
sI2613
S'455511'
p2615
sI2614
S'529556'
p2616
sI2615
S'joho02hierarchical'
p2617
sI2616
S'nascimento99evaluation'
p2618
sI2617
S'brin98what'
p2619
sI2618
S'cummins99automatic'
p2620
sI2619
S'kwedlo99evolutionary'
p2621
sI2620
S'schuster98neural'
p2622
sI2621
S'273596'
p2623
sI2622
S'goldman00enhancing'
p2624
sI2623
S'18124'
p2625
sI2624
S'527640'
p2626
sI2625
S'martin00knowledge'
p2627
sI2626
S'tari00cache'
p2628
sI2627
S'rauber01automatically'
p2629
sI2628
S'23780'
p2630
sI2629
S'chalmers98order'
p2631
sI2630
S'28307'
p2632
sI2631
S'seymore99learning'
p2633
sI2632
S'jamil01case'
p2634
sI2633
S'eiter98firstorder'
p2635
sI2634
S'park98alternative'
p2636
sI2635
S'damiani97semantic'
p2637
sI2636
S'bradford98pruning'
p2638
sI2637
S'mannila99prediction'
p2639
sI2638
S'decker95coordination'
p2640
sI2639
S'187693'
p2641
sI2640
S'531861'
p2642
sI2641
S'agouris98intelligent'
p2643
sI2642
S'hannebauer99dynamic'
p2644
sI2643
S'31326'
p2645
sI2644
S'karkanis00image'
p2646
sI2645
S'366926'
p2647
sI2646
S'537134'
p2648
sI2647
S'pandurangan02using'
p2649
sI2648
S'boncz98flattening'
p2650
sI2649
S'ross98complex'
p2651
sI2650
S'cheverst00developing'
p2652
sI2651
S'cabri00xml'
p2653
sI2652
S'oh00efficient'
p2654
sI2653
S'carvalho00hybrid'
p2655
sI2654
S'goldman98interactive'
p2656
sI2655
S'paradis98language'
p2657
sI2656
S'christel99interactive'
p2658
sI2657
S'boros98how'
p2659
sI2658
S'bradford99characterization'
p2660
sI2659
S'449621'
p2661
sI2660
S'smith00neural'
p2662
sI2661
S'medl98multimodal'
p2663
sI2662
S'dautenhahn99bringing'
p2664
sI2663
S'decker01extending'
p2665
sI2664
S'375693'
p2666
sI2665
S'206485'
p2667
sI2666
S'sato01parameter'
p2668
sI2667
S'drummond97using'
p2669
sI2668
S'rao97unified'
p2670
sI2669
S'prentzas01webbased'
p2671
sI2670
S'haveliwala02evaluating'
p2672
sI2671
S'obrst97constraints'
p2673
sI2672
S'schulte99spontaneous'
p2674
sI2673
S'carson99blobworld'
p2675
sI2674
S'27645'
p2676
sI2675
S'250432'
p2677
sI2676
S'skow02security'
p2678
sI2677
S'schuldt99transactional'
p2679
sI2678
S'datta98case'
p2680
sI2679
S'nahm00using'
p2681
sI2680
S'95810'
p2682
sI2681
S'rosario99synthetic'
p2683
sI2682
S'punin01web'
p2684
sI2683
S'guessoum99from'
p2685
sI2684
S'schiele99attentional'
p2686
sI2685
S'li01webdocument'
p2687
sI2686
S'65714'
p2688
sI2687
S'hatzilygeroudis00neurules'
p2689
sI2688
S'leung98probabilistic'
p2690
sI2689
S'510172'
p2691
sI2690
S'traum96reactivedeliberative'
p2692
sI2691
S'rickel98taskoriented'
p2693
sI2692
S'wisneski98ambient'
p2694
sI2693
S'73259'
p2695
sI2694
S'harel00characterizing'
p2696
sI2695
S'73250'
p2697
sI2696
S'60365'
p2698
sI2697
S'448486'
p2699
sI2698
S'313926'
p2700
sI2699
S'337032'
p2701
sI2700
S'vandertorre99violation'
p2702
sI2701
S'sampaio98deductive'
p2703
sI2702
S'turney00learning'
p2704
sI2703
S'thomason00desires'
p2705
sI2704
S'mayol02designing'
p2706
sI2705
S'amiri00dynamic'
p2707
sI2706
S'benitez98contentbased'
p2708
sI2707
S'jalali-sohi01integrated'
p2709
sI2708
S'good99combining'
p2710
sI2709
S'panzarasa01organisation'
p2711
sI2710
S'lin01indexing'
p2712
sI2711
S'moukas96amalthaea'
p2713
sI2712
S'rasheed98adaptive'
p2714
sI2713
S'giraud-carrier98beyond'
p2715
sI2714
S'satoh01flying'
p2716
sI2715
S'chamberlin00quilt'
p2717
sI2716
S'376961'
p2718
sI2717
S'pentland99digital'
p2719
sI2718
S'ricci97extending'
p2720
sI2719
S'rao95formal'
p2721
sI2720
S'449529'
p2722
sI2721
S'kirste01reference'
p2723
sI2722
S'vanwelie00patterns'
p2724
sI2723
S'315280'
p2725
sI2724
S'dragoni00mental'
p2726
sI2725
S'meng98data'
p2727
sI2726
S'jantke97theoretical'
p2728
sI2727
S'wang99negation'
p2729
sI2728
S'428001'
p2730
sI2729
S'vanhoof99bottomup'
p2731
sI2730
S'205160'
p2732
sI2731
S'quek95eyes'
p2733
sI2732
S'kueng01holistic'
p2734
sI2733
S'muslea01hierarchical'
p2735
sI2734
S'shankar00weight'
p2736
sI2735
S'kushmerick00wrapper'
p2737
sI2736
S'474167'
p2738
sI2737
S'rosales99trajectory'
p2739
sI2738
S'goller99connectionist'
p2740
sI2739
S'360831'
p2741
sI2740
S'matthews99fuzzy'
p2742
sI2741
S'lee00spectral'
p2743
sI2742
S'schmidt00implicit'
p2744
sI2743
S'aylett00applying'
p2745
sI2744
S'443913'
p2746
sI2745
S'schohn00less'
p2747
sI2746
S'441191'
p2748
sI2747
S'saif01communication'
p2749
sI2748
S'mchugh99optimizing'
p2750
sI2749
S'212834'
p2751
sI2750
S'florescu99performance'
p2752
sI2751
S'290879'
p2753
sI2752
S'zhang01evolutionary'
p2754
sI2753
S'oliver99bayesian'
p2755
sI2754
S'deloach02analysis'
p2756
sI2755
S'wolpert99general'
p2757
sI2756
S'yang98extraction'
p2758
sI2757
S'tenhagen01continuous'
p2759
sI2758
S'zambonelli01emergence'
p2760
sI2759
S'538003'
p2761
sI2760
S'timm01synthesis'
p2762
sI2761
S'162738'
p2763
sI2762
S'benford00designing'
p2764
sI2763
S'grimm00revisiting'
p2765
sI2764
S'lobo99extended'
p2766
sI2765
S'kushmerick02adaptive'
p2767
sI2766
S'kendall97application'
p2768
sI2767
S'164953'
p2769
sI2768
S'huget02application'
p2770
sI2769
S'seo00reinforcement'
p2771
sI2770
S'singletary01learning'
p2772
sI2771
S'oyama01keyword'
p2773
sI2772
S'ian99kea'
p2774
sI2773
S'8956'
p2775
sI2774
S'102637'
p2776
sI2775
S'22863'
p2777
sI2776
S'burnett00exception'
p2778
sI2777
S'lau00version'
p2779
sI2778
S'florescu99query'
p2780
sI2779
S'michaud01using'
p2781
sI2780
S'jain99statistical'
p2782
sI2781
S'254041'
p2783
sI2782
S'dom99mining'
p2784
sI2783
S'druin01designing'
p2785
sI2784
S'gustafson00adapt'
p2786
sI2785
S'tarau99jinni'
p2787
sI2786
S'camacho00multiagent'
p2788
sI2787
S'shneiderman99creating'
p2789
sI2788
S'fauvet99applying'
p2790
sI2789
S'nijholt00multimodal'
p2791
sI2790
S'baumgartner01supervised'
p2792
sI2791
S'453663'
p2793
sI2792
S'zhang99sdcc'
p2794
sI2793
S'381995'
p2795
sI2794
S'pantic00expert'
p2796
sI2795
S'491341'
p2797
sI2796
S'conati00toward'
p2798
sI2797
S'nguyen98strict'
p2799
sI2798
S'29319'
p2800
sI2799
S'mcgowan02who'
p2801
sI2800
S'295535'
p2802
sI2801
S'ishida99digital'
p2803
sI2802
S'172950'
p2804
sI2803
S'acharya99selectivity'
p2805
sI2804
S'witten99greenstone'
p2806
sI2805
S'510100'
p2807
sI2806
S'dragoni00updating'
p2808
sI2807
S'harel99workload'
p2809
sI2808
S'301461'
p2810
sI2809
S'paradis98virtual'
p2811
sI2810
S'kim01secret'
p2812
sI2811
S'138451'
p2813
sI2812
S'kleinberg98microeconomic'
p2814
sI2813
S'fiebig97raw'
p2815
sI2814
S'18915'
p2816
sI2815
S'kemme98suite'
p2817
sI2816
S'levene01web'
p2818
sI2817
S'cassell99requirements'
p2819
sI2818
S'415731'
p2820
sI2819
S'debenham99multiagent'
p2821
sI2820
S'busetta99jack'
p2822
sI2821
S'kumar98beyond'
p2823
sI2822
S'skarmeas99component'
p2824
sI2823
S'tan01trust'
p2825
sI2824
S'heinzmann98visual'
p2826
sI2825
S'11423'
p2827
sI2826
S'520488'
p2828
sI2827
S'joachims99transductive'
p2829
sI2828
S'226643'
p2830
sI2829
S'bouguettaya99using'
p2831
sI2830
S'29551'
p2832
sI2831
S'krishnamurthy01dynamic'
p2833
sI2832
S'smola98general'
p2834
sI2833
S'199764'
p2835
sI2834
S'christiansen99integrity'
p2836
sI2835
S'koskela00picsom'
p2837
sI2836
S'243755'
p2838
sI2837
S'lomuscio00classification'
p2839
sI2838
S'cabrera01proactive'
p2840
sI2839
S'192987'
p2841
sI2840
S'bozzano99logic'
p2842
sI2841
S'312028'
p2843
sI2842
S'talim01controlling'
p2844
sI2843
S'pant02myspiders'
p2845
sI2844
S'carbonell98report'
p2846
sI2845
S'filliat00active'
p2847
sI2846
S'rintanen98planning'
p2848
sI2847
S'cal02expressive'
p2849
sI2848
S'147445'
p2850
sI2849
S'michaelides98uniform'
p2851
sI2850
S'brown98utility'
p2852
sI2851
S'44892'
p2853
sI2852
S'degaris99evolving'
p2854
sI2853
S'smyth99surfing'
p2855
sI2854
S'472783'
p2856
sI2855
S'496354'
p2857
sI2856
S'451495'
p2858
sI2857
S'sastry01cluster'
p2859
sI2858
S'grishman01adaptive'
p2860
sI2859
S'kobayashi99information'
p2861
sI2860
S'michail99assessing'
p2862
sI2861
S'brafman98knowledge'
p2863
sI2862
S'moon98scalable'
p2864
sI2863
S'folch00typtex'
p2865
sI2864
S'525023'
p2866
sI2865
S'arpinar00open'
p2867
sI2866
S'bettini01xklaim'
p2868
sI2867
S'bernstein00data'
p2869
sI2868
S'yu01progressive'
p2870
sI2869
S'holmquist00play'
p2871
sI2870
S'wachsmuth01lifelike'
p2872
sI2871
S'denoue00annotation'
p2873
sI2872
S'beetz98causal'
p2874
sI2873
S'540380'
p2875
sI2874
S'norrie00extended'
p2876
sI2875
S'531929'
p2877
s.